(lp0
(lp1
F0.5422
aF0.6325
aF0.7188
aF0.7263
aF0.7583
aF0.7578
aF0.7765
aF0.8044
aF0.7933
aF0.8044
aF0.8198
aF0.8165
aF0.8215
aF0.8164
aF0.8291
aF0.8362
aF0.835
aF0.8306
aF0.8375
aF0.8241
aF0.8397
aF0.842
aF0.8468
aF0.8393
aF0.8404
aF0.8465
aF0.8384
aF0.8463
aF0.8442
aF0.8517
aF0.8509
aF0.8495
aF0.8488
aF0.845
aF0.8577
aF0.8619
aF0.8521
aF0.8513
aF0.8596
aF0.8539
aF0.854
aF0.8551
aF0.8549
aF0.8577
aF0.8561
aF0.8576
aF0.8605
aF0.8584
aF0.861
aF0.8547
aF0.8637
aF0.8592
aF0.8617
aF0.8622
aF0.8678
aF0.8611
aF0.8698
aF0.8617
aF0.8605
aF0.8695
aF0.8654
aF0.8701
aF0.8663
aF0.8689
aF0.8723
aF0.8689
aF0.8677
aF0.8591
aF0.866
aF0.8725
aF0.871
aF0.8711
aF0.8681
aF0.8665
aF0.8654
aF0.8641
aF0.8707
aF0.8695
aF0.8693
aF0.8726
aF0.8732
aF0.8704
aF0.866
aF0.8708
aF0.8628
aF0.8747
aF0.8691
aF0.8727
aF0.8737
aF0.8728
aF0.8675
aF0.8699
aF0.8708
aF0.875
aF0.868
aF0.8764
aF0.8763
aF0.8727
aF0.8767
aF0.8698
aF0.876
aF0.8715
aF0.872
aF0.8733
aF0.8783
aF0.8683
aF0.8779
aF0.8804
aF0.8751
aF0.8696
aF0.8752
aF0.874
aF0.8726
aF0.878
aF0.8729
aF0.8785
aF0.8769
aF0.8763
aF0.8784
aF0.8703
aF0.8753
aF0.8774
aF0.8832
aF0.8764
aF0.8817
aF0.8741
aF0.871
aF0.8769
aF0.8782
aF0.8756
aF0.881
aF0.8748
aF0.8785
aF0.8782
aF0.8734
aF0.8715
aF0.8791
aF0.8751
aF0.8681
aF0.8732
aF0.8697
aF0.8816
aF0.8767
aF0.8765
aF0.8813
aF0.88
aF0.8734
aF0.881
aF0.8805
aF0.8772
aF0.8787
aF0.8792
aF0.8777
aF0.8809
aF0.8781
aF0.8741
aF0.8821
aF0.8813
aF0.8743
aF0.8752
aF0.8793
aF0.8789
aF0.8824
aF0.875
aF0.8789
aF0.8732
aF0.8752
aF0.8818
aF0.8819
aF0.8785
aF0.8792
aF0.8788
aF0.8793
aF0.8807
aF0.8784
aF0.884
aF0.8873
aF0.8769
aF0.8798
aF0.8792
aF0.8813
aF0.8816
aF0.8848
aF0.8805
aF0.8771
aF0.8754
aF0.8771
aF0.8819
aF0.8795
aF0.8765
aF0.8757
aF0.8813
aF0.8825
aF0.8802
aF0.8827
aF0.8768
aF0.8776
aF0.877
aF0.8787
aF0.879
aF0.8804
aF0.8813
aF0.8737
aF0.8803
aF0.8805
aF0.8793
aF0.8841
aF0.8786
aF0.8808
aF0.8793
aF0.8834
aF0.8822
aF0.8818
aF0.8822
aF0.8867
aF0.8808
aF0.8762
aF0.8822
aF0.8838
aF0.8825
aF0.8795
aF0.8806
aF0.8788
aF0.8877
aF0.8821
aF0.8834
aF0.8776
aF0.8792
aF0.879
aF0.8836
aF0.8798
aF0.8831
aF0.8861
aF0.8834
aF0.8777
aF0.881
aF0.8851
aF0.8886
aF0.8783
aF0.8858
aF0.8836
aF0.886
aF0.8795
aF0.8797
aF0.8746
aF0.8836
aF0.8814
aF0.8739
aF0.886
aF0.8811
aF0.8821
aF0.8792
aF0.8801
aF0.8785
aF0.8851
aF0.8823
aF0.8834
aF0.8848
aF0.8854
aF0.8778
aF0.8823
aF0.8824
aF0.887
aF0.888
aF0.8778
aF0.8828
aF0.8804
aF0.8797
aF0.8815
aF0.8869
aF0.8872
aF0.8827
aF0.8797
aF0.8765
aF0.8808
aF0.8843
aF0.8822
aF0.885
aF0.8799
aF0.8824
aF0.8843
aF0.8813
aF0.881
aF0.8809
aF0.8857
aF0.8775
aF0.8893
aF0.8833
aF0.8778
aF0.8786
aF0.8806
aF0.884
aF0.8842
aF0.8833
aF0.8812
aF0.8845
aF0.8847
aF0.8792
aF0.8828
aF0.8855
aF0.8842
aF0.88
aF0.8848
aF0.8908
aF0.8827
aF0.8829
aF0.8907
aF0.8932
aF0.8835
aF0.8855
aF0.8879
aF0.8829
aF0.886
aF0.8849
aF0.8818
aF0.8784
aF0.8901
aF0.879
aF0.8816
aF0.886
aF0.8871
aF0.8843
aF0.8819
aF0.8878
aF0.8817
aF0.8827
aF0.8801
aF0.8817
aF0.88
aF0.8842
aF0.876
aF0.8849
aF0.8814
aF0.8809
aF0.8888
aF0.8856
aF0.8844
aF0.887
aF0.8796
aF0.8799
aF0.8836
aF0.8818
aF0.8856
aF0.8817
aF0.8863
aF0.8875
aF0.8824
aF0.8805
aF0.8837
aF0.8874
aF0.8837
aF0.8865
aF0.884
aF0.8804
aF0.8835
aF0.8813
aF0.8802
aF0.8829
aF0.8798
aF0.8872
aF0.8868
aF0.8826
aF0.886
aF0.8856
aF0.8861
aF0.8855
aF0.8906
aF0.8823
aF0.8844
aF0.8807
aF0.8891
aF0.8794
aF0.8865
aF0.8877
aF0.8791
aF0.8809
aF0.8871
aF0.8856
aF0.8879
aF0.8832
aF0.8783
aF0.8874
aF0.8789
aF0.8838
aF0.8828
aF0.8839
aF0.8864
aF0.8877
aF0.8808
aF0.8822
aF0.8842
aF0.8889
aF0.8832
aF0.8849
aF0.8828
aF0.8822
aF0.8861
aF0.8862
aF0.8882
aa.