(lp0
(lp1
F0.1256
aF0.1572
aF0.1742
aF0.2011
aF0.1883
aF0.1772
aF0.1812
aF0.1443
aF0.1794
aF0.1734
aF0.1702
aF0.194
aF0.1902
aF0.196
aF0.2001
aF0.1981
aF0.1848
aF0.1713
aF0.1772
aF0.2001
aF0.196
aF0.1732
aF0.1809
aF0.1829
aF0.1872
aF0.1913
aF0.1752
aF0.1832
aF0.1732
aF0.1848
aF0.206
aF0.206
aF0.2019
aF0.1826
aF0.1874
aF0.1963
aF0.1748
aF0.1772
aF0.2026
aF0.1964
aF0.1848
aF0.194
aF0.1809
aF0.2067
aF0.1919
aF0.2019
aF0.1809
aF0.206
aF0.2011
aF0.2001
aF0.196
aF0.196
aF0.1772
aF0.1772
aF0.2019
aF0.2051
aF0.2051
aF0.2067
aF0.194
aF0.2051
aF0.1964
aF0.1967
aF0.1826
aF0.1826
aF0.1772
aF0.1964
aF0.2067
aF0.206
aF0.191
aF0.2097
aF0.196
aF0.206
aF0.2023
aF0.1752
aF0.206
aF0.2023
aF0.2023
aF0.1752
aF0.1964
aa(lp2
F0.1785
aF0.1981
aF0.1917
aF0.3074
aF0.2359
aF0.2759
aF0.3009
aF0.2667
aF0.2775
aF0.2709
aF0.2186
aF0.2883
aF0.2911
aF0.2883
aF0.2322
aF0.2951
aF0.2643
aF0.3019
aF0.2555
aF0.2667
aF0.3254
aF0.2936
aF0.2772
aF0.3246
aF0.3206
aF0.3041
aF0.303
aF0.3195
aF0.2985
aF0.2994
aF0.3234
aF0.3261
aF0.3245
aF0.3036
aF0.3252
aF0.3072
aF0.3401
aF0.2948
aF0.2808
aF0.2818
aF0.3223
aF0.3136
aF0.3307
aF0.3207
aF0.2729
aF0.3018
aF0.3158
aF0.3416
aF0.2651
aF0.2974
aF0.2533
aF0.3184
aF0.3079
aF0.3047
aF0.3449
aF0.3302
aF0.3168
aF0.2989
aF0.308
aF0.3202
aF0.3099
aF0.2781
aF0.3003
aF0.3246
aF0.3207
aF0.283
aF0.3383
aF0.2901
aF0.3133
aF0.3453
aF0.3208
aF0.3091
aF0.2946
aF0.2982
aF0.2827
aF0.3411
aF0.3021
aF0.3391
aF0.3206
aa(lp3
F0.261
aF0.2431
aF0.3239
aF0.3609
aF0.2989
aF0.3241
aF0.373
aF0.4102
aF0.3075
aF0.377
aF0.3724
aF0.4024
aF0.3572
aF0.3958
aF0.419
aF0.3927
aF0.399
aF0.3472
aF0.3993
aF0.3912
aF0.3843
aF0.3862
aF0.374
aF0.4257
aF0.4256
aF0.4256
aF0.4026
aF0.3531
aF0.4195
aF0.4098
aF0.4469
aF0.3851
aF0.4019
aF0.4414
aF0.421
aF0.3939
aF0.3949
aF0.4289
aF0.4327
aF0.3803
aF0.4317
aF0.3935
aF0.4631
aF0.4492
aF0.4736
aF0.412
aF0.4337
aF0.3768
aF0.409
aF0.413
aF0.4268
aF0.413
aF0.4793
aF0.4521
aF0.4122
aF0.4258
aF0.4344
aF0.4253
aF0.4388
aF0.4437
aF0.3954
aF0.4193
aF0.4659
aF0.4311
aF0.4508
aF0.4402
aF0.4408
aF0.4408
aF0.4733
aF0.4774
aF0.4133
aF0.4672
aF0.4142
aF0.4707
aF0.4765
aF0.4479
aF0.4435
aF0.4055
aF0.4588
aa(lp4
F0.2204
aF0.2265
aF0.2256
aF0.3932
aF0.3863
aF0.421
aF0.4595
aF0.4602
aF0.404
aF0.4714
aF0.456
aF0.4108
aF0.4375
aF0.5112
aF0.4708
aF0.4394
aF0.4771
aF0.4867
aF0.4868
aF0.4454
aF0.5014
aF0.4651
aF0.5224
aF0.5162
aF0.47
aF0.4952
aF0.4995
aF0.4777
aF0.5346
aF0.5126
aF0.5047
aF0.5001
aF0.5409
aF0.456
aF0.5059
aF0.4724
aF0.5606
aF0.5199
aF0.5187
aF0.518
aF0.4651
aF0.5217
aF0.5056
aF0.5196
aF0.5167
aF0.5214
aF0.506
aF0.538
aF0.5161
aF0.5372
aF0.531
aF0.5641
aF0.5845
aF0.5251
aF0.546
aF0.531
aF0.5625
aF0.4884
aF0.5649
aF0.5227
aF0.5921
aF0.491
aF0.5585
aF0.5377
aF0.5489
aF0.5204
aF0.554
aF0.5166
aF0.5258
aF0.533
aF0.5183
aF0.4813
aF0.5487
aF0.5131
aF0.5732
aF0.5274
aF0.5666
aF0.5994
aF0.5437
aa(lp5
F0.2968
aF0.3862
aF0.3792
aF0.4725
aF0.4611
aF0.4665
aF0.5083
aF0.476
aF0.5089
aF0.5009
aF0.5282
aF0.5615
aF0.5409
aF0.5688
aF0.5391
aF0.5478
aF0.5378
aF0.5454
aF0.567
aF0.5526
aF0.5182
aF0.5656
aF0.5654
aF0.5989
aF0.5847
aF0.5819
aF0.595
aF0.5821
aF0.5997
aF0.5921
aF0.594
aF0.6249
aF0.5763
aF0.5919
aF0.5554
aF0.6108
aF0.6081
aF0.5668
aF0.6617
aF0.5884
aF0.6213
aF0.5981
aF0.6316
aF0.5906
aF0.6031
aF0.6167
aF0.6337
aF0.6383
aF0.6281
aF0.5891
aF0.5841
aF0.6119
aF0.5931
aF0.6292
aF0.592
aF0.6079
aF0.6589
aF0.6457
aF0.6304
aF0.6241
aF0.5929
aF0.6446
aF0.6273
aF0.5764
aF0.6076
aF0.6248
aF0.6581
aF0.6368
aF0.6281
aF0.5985
aF0.6415
aF0.6136
aF0.6555
aF0.6322
aF0.6557
aF0.6387
aF0.6282
aF0.6213
aF0.6433
aa(lp6
F0.2795
aF0.3994
aF0.4739
aF0.4855
aF0.5282
aF0.4925
aF0.5223
aF0.5652
aF0.5517
aF0.5761
aF0.6046
aF0.5674
aF0.5925
aF0.6197
aF0.6058
aF0.5682
aF0.6297
aF0.5887
aF0.6141
aF0.648
aF0.6098
aF0.6084
aF0.6464
aF0.631
aF0.6324
aF0.6548
aF0.6529
aF0.6268
aF0.6445
aF0.6579
aF0.6431
aF0.6124
aF0.6424
aF0.6481
aF0.6811
aF0.6717
aF0.6856
aF0.6517
aF0.6855
aF0.6557
aF0.6494
aF0.6564
aF0.6682
aF0.6772
aF0.6909
aF0.6531
aF0.659
aF0.701
aF0.6854
aF0.7017
aF0.6992
aF0.6812
aF0.6754
aF0.6684
aF0.656
aF0.6862
aF0.647
aF0.7059
aF0.6859
aF0.6755
aF0.6948
aF0.6826
aF0.6882
aF0.7079
aF0.695
aF0.7062
aF0.7191
aF0.6923
aF0.6733
aF0.7272
aF0.6912
aF0.681
aF0.7179
aF0.6853
aF0.6921
aF0.7167
aF0.7313
aF0.6583
aF0.6816
aa(lp7
F0.3784
aF0.4737
aF0.4635
aF0.488
aF0.5628
aF0.5926
aF0.6153
aF0.5484
aF0.5938
aF0.6301
aF0.6426
aF0.6217
aF0.6535
aF0.6588
aF0.6948
aF0.6559
aF0.6722
aF0.6787
aF0.6827
aF0.6768
aF0.6661
aF0.6863
aF0.6938
aF0.7107
aF0.7073
aF0.7158
aF0.6899
aF0.7056
aF0.725
aF0.6731
aF0.6955
aF0.7077
aF0.7321
aF0.7076
aF0.7166
aF0.7161
aF0.7171
aF0.7271
aF0.7061
aF0.7067
aF0.7166
aF0.7433
aF0.7159
aF0.7212
aF0.7246
aF0.7351
aF0.739
aF0.712
aF0.7426
aF0.7252
aF0.7192
aF0.7488
aF0.752
aF0.7426
aF0.7157
aF0.7553
aF0.7165
aF0.731
aF0.739
aF0.7465
aF0.7448
aF0.7497
aF0.7473
aF0.7401
aF0.7411
aF0.7421
aF0.7376
aF0.7338
aF0.7364
aF0.7412
aF0.74
aF0.752
aF0.7528
aF0.765
aF0.7508
aF0.7428
aF0.7478
aF0.7526
aF0.7647
aa(lp8
F0.3812
aF0.4501
aF0.5101
aF0.5514
aF0.5718
aF0.6056
aF0.6436
aF0.6446
aF0.6599
aF0.6523
aF0.6873
aF0.6863
aF0.6827
aF0.7039
aF0.6662
aF0.713
aF0.7084
aF0.6986
aF0.7302
aF0.7295
aF0.7425
aF0.7401
aF0.7278
aF0.7623
aF0.7522
aF0.7278
aF0.7379
aF0.7582
aF0.7384
aF0.759
aF0.7341
aF0.7705
aF0.76
aF0.755
aF0.7541
aF0.7465
aF0.7729
aF0.7794
aF0.7498
aF0.7627
aF0.7788
aF0.7541
aF0.7721
aF0.7598
aF0.7639
aF0.7687
aF0.7743
aF0.7837
aF0.7712
aF0.7715
aF0.7728
aF0.778
aF0.7587
aF0.789
aF0.7758
aF0.7744
aF0.7705
aF0.74
aF0.7593
aF0.7881
aF0.7791
aF0.7902
aF0.7841
aF0.7805
aF0.7854
aF0.7838
aF0.786
aF0.7871
aF0.7949
aF0.7953
aF0.7965
aF0.7961
aF0.7786
aF0.7824
aF0.7875
aF0.7976
aF0.7906
aF0.7908
aF0.7777
aa(lp9
F0.3027
aF0.4453
aF0.5891
aF0.5835
aF0.6125
aF0.6388
aF0.6593
aF0.6871
aF0.6659
aF0.6967
aF0.7224
aF0.7357
aF0.7363
aF0.7199
aF0.7353
aF0.7547
aF0.7373
aF0.7434
aF0.7409
aF0.7431
aF0.7545
aF0.761
aF0.7566
aF0.7786
aF0.7844
aF0.781
aF0.7735
aF0.7853
aF0.7827
aF0.7812
aF0.7665
aF0.7899
aF0.7925
aF0.7828
aF0.7978
aF0.7923
aF0.8032
aF0.7877
aF0.7952
aF0.7855
aF0.7972
aF0.794
aF0.8004
aF0.7972
aF0.7985
aF0.7763
aF0.8049
aF0.8048
aF0.7878
aF0.8087
aF0.7983
aF0.8179
aF0.8056
aF0.8089
aF0.8223
aF0.7952
aF0.816
aF0.8203
aF0.8143
aF0.8163
aF0.8102
aF0.8194
aF0.8093
aF0.816
aF0.8238
aF0.8112
aF0.8283
aF0.8232
aF0.8107
aF0.8159
aF0.8243
aF0.8324
aF0.8228
aF0.8185
aF0.8293
aF0.8283
aF0.8172
aF0.8272
aF0.825
aa(lp10
F0.4177
aF0.5588
aF0.5443
aF0.6585
aF0.71
aF0.6562
aF0.6932
aF0.7098
aF0.7299
aF0.7231
aF0.7394
aF0.7565
aF0.7565
aF0.7497
aF0.7617
aF0.7718
aF0.7812
aF0.7797
aF0.7791
aF0.7832
aF0.7875
aF0.7926
aF0.7974
aF0.7959
aF0.7959
aF0.7989
aF0.8044
aF0.8046
aF0.8042
aF0.7894
aF0.8092
aF0.8062
aF0.8213
aF0.8189
aF0.8004
aF0.8219
aF0.8209
aF0.8211
aF0.8256
aF0.8268
aF0.8213
aF0.8244
aF0.8314
aF0.8117
aF0.8323
aF0.8186
aF0.8272
aF0.8131
aF0.8349
aF0.8403
aF0.8217
aF0.8248
aF0.8473
aF0.8357
aF0.8178
aF0.8422
aF0.8364
aF0.8505
aF0.8285
aF0.8413
aF0.8377
aF0.8364
aF0.8345
aF0.8446
aF0.8407
aF0.8365
aF0.8432
aF0.845
aF0.8401
aF0.8481
aF0.8402
aF0.8322
aF0.8349
aF0.844
aF0.8426
aF0.8417
aF0.8381
aF0.8332
aF0.8413
aa(lp11
F0.4399
aF0.5775
aF0.5935
aF0.6563
aF0.6566
aF0.7057
aF0.7589
aF0.7465
aF0.7607
aF0.7742
aF0.7458
aF0.777
aF0.7631
aF0.7777
aF0.7969
aF0.797
aF0.7929
aF0.8036
aF0.8088
aF0.8128
aF0.7983
aF0.81
aF0.8159
aF0.8241
aF0.8287
aF0.8175
aF0.8221
aF0.8282
aF0.8256
aF0.8225
aF0.8319
aF0.8312
aF0.8376
aF0.8266
aF0.8378
aF0.8332
aF0.8458
aF0.8224
aF0.8249
aF0.8362
aF0.831
aF0.8328
aF0.8397
aF0.8372
aF0.8423
aF0.8419
aF0.841
aF0.8384
aF0.8404
aF0.8432
aF0.8414
aF0.8465
aF0.8511
aF0.8515
aF0.8487
aF0.8434
aF0.846
aF0.8594
aF0.8507
aF0.8526
aF0.8539
aF0.842
aF0.8569
aF0.8506
aF0.8583
aF0.853
aF0.8574
aF0.8573
aF0.8626
aF0.8547
aF0.8608
aF0.8566
aF0.8616
aF0.8567
aF0.8581
aF0.8524
aF0.8627
aF0.855
aF0.862
aa(lp12
F0.5074
aF0.5801
aF0.6575
aF0.6833
aF0.7588
aF0.7224
aF0.721
aF0.768
aF0.7677
aF0.7789
aF0.7844
aF0.8097
aF0.783
aF0.8135
aF0.8085
aF0.8116
aF0.8091
aF0.8126
aF0.8165
aF0.8177
aF0.832
aF0.8161
aF0.8184
aF0.8283
aF0.8422
aF0.8308
aF0.8312
aF0.8429
aF0.8332
aF0.8517
aF0.8445
aF0.8402
aF0.8414
aF0.8448
aF0.8406
aF0.8471
aF0.8455
aF0.852
aF0.842
aF0.8441
aF0.8576
aF0.8485
aF0.8502
aF0.852
aF0.8531
aF0.8456
aF0.8445
aF0.8478
aF0.8607
aF0.8493
aF0.8556
aF0.85
aF0.855
aF0.8632
aF0.8643
aF0.8558
aF0.8552
aF0.8627
aF0.8582
aF0.8604
aF0.8615
aF0.8597
aF0.8623
aF0.868
aF0.8585
aF0.8662
aF0.8639
aF0.8675
aF0.8529
aF0.8626
aF0.8664
aF0.8583
aF0.8633
aF0.8679
aF0.8604
aF0.8682
aF0.8601
aF0.8632
aF0.8672
aa(lp13
F0.4972
aF0.6063
aF0.6852
aF0.6703
aF0.7378
aF0.7284
aF0.7644
aF0.7629
aF0.7935
aF0.7863
aF0.7999
aF0.8071
aF0.8221
aF0.8142
aF0.8127
aF0.8236
aF0.8252
aF0.8291
aF0.818
aF0.8324
aF0.8335
aF0.8267
aF0.8361
aF0.8318
aF0.8467
aF0.8471
aF0.8451
aF0.8441
aF0.8388
aF0.8548
aF0.844
aF0.8579
aF0.8512
aF0.854
aF0.8615
aF0.8487
aF0.8611
aF0.8575
aF0.85
aF0.8565
aF0.8561
aF0.8502
aF0.8591
aF0.8591
aF0.8498
aF0.8562
aF0.8631
aF0.8595
aF0.8597
aF0.8698
aF0.8671
aF0.8608
aF0.8627
aF0.8609
aF0.8582
aF0.8634
aF0.8572
aF0.857
aF0.8596
aF0.8644
aF0.862
aF0.8591
aF0.8711
aF0.8659
aF0.8636
aF0.8653
aF0.8686
aF0.8663
aF0.8579
aF0.8609
aF0.8621
aF0.8705
aF0.8717
aF0.8643
aF0.8672
aF0.8682
aF0.8709
aF0.8687
aF0.8703
aa(lp14
F0.5381
aF0.6063
aF0.6678
aF0.6997
aF0.7356
aF0.7689
aF0.7637
aF0.7742
aF0.8029
aF0.7978
aF0.7913
aF0.8191
aF0.8152
aF0.8212
aF0.8217
aF0.8254
aF0.8278
aF0.8153
aF0.8364
aF0.8388
aF0.8345
aF0.8323
aF0.8378
aF0.8371
aF0.8403
aF0.8528
aF0.8459
aF0.8418
aF0.8446
aF0.8464
aF0.8433
aF0.8534
aF0.8519
aF0.8504
aF0.8481
aF0.8577
aF0.8568
aF0.8524
aF0.8549
aF0.8606
aF0.8581
aF0.8647
aF0.8605
aF0.8625
aF0.8562
aF0.8529
aF0.8641
aF0.8644
aF0.859
aF0.8644
aF0.8588
aF0.8583
aF0.8664
aF0.8634
aF0.8676
aF0.8623
aF0.8689
aF0.8648
aF0.8694
aF0.866
aF0.8657
aF0.8685
aF0.8615
aF0.8678
aF0.875
aF0.8649
aF0.8686
aF0.8627
aF0.8621
aF0.8682
aF0.8697
aF0.8669
aF0.8702
aF0.869
aF0.8675
aF0.8711
aF0.8713
aF0.8722
aF0.8707
aa(lp15
F0.5377
aF0.5714
aF0.7109
aF0.7047
aF0.7468
aF0.7479
aF0.7804
aF0.7878
aF0.7963
aF0.8071
aF0.8086
aF0.8143
aF0.8222
aF0.8138
aF0.8314
aF0.8207
aF0.8332
aF0.8307
aF0.8277
aF0.843
aF0.8405
aF0.8422
aF0.8428
aF0.8375
aF0.8462
aF0.8481
aF0.8463
aF0.8472
aF0.851
aF0.845
aF0.8462
aF0.8531
aF0.8483
aF0.8549
aF0.8519
aF0.8485
aF0.8531
aF0.8543
aF0.8586
aF0.8575
aF0.8566
aF0.8605
aF0.8516
aF0.8639
aF0.8616
aF0.8643
aF0.8654
aF0.8607
aF0.8632
aF0.8655
aF0.8603
aF0.8682
aF0.8613
aF0.8635
aF0.8654
aF0.866
aF0.8595
aF0.8694
aF0.8616
aF0.8627
aF0.8751
aF0.8654
aF0.8628
aF0.8675
aF0.8661
aF0.8665
aF0.8674
aF0.8695
aF0.8688
aF0.8641
aF0.8625
aF0.8727
aF0.8698
aF0.865
aF0.8679
aF0.8664
aF0.8706
aF0.8677
aF0.8707
aa(lp16
F0.5449
aF0.6754
aF0.6725
aF0.7358
aF0.761
aF0.7843
aF0.7884
aF0.7908
aF0.7882
aF0.7949
aF0.8084
aF0.7991
aF0.8177
aF0.8164
aF0.8311
aF0.8241
aF0.8333
aF0.8349
aF0.8404
aF0.8389
aF0.8376
aF0.8417
aF0.842
aF0.8428
aF0.8444
aF0.8428
aF0.8545
aF0.8496
aF0.8489
aF0.8496
aF0.845
aF0.8416
aF0.8628
aF0.8532
aF0.8532
aF0.8515
aF0.8559
aF0.8635
aF0.8563
aF0.8659
aF0.8605
aF0.8539
aF0.8543
aF0.8596
aF0.8605
aF0.8598
aF0.8561
aF0.8583
aF0.866
aF0.8598
aF0.8588
aF0.862
aF0.8652
aF0.8634
aF0.8629
aF0.8639
aF0.8715
aF0.8669
aF0.8603
aF0.8645
aF0.8688
aF0.8651
aF0.8701
aF0.8656
aF0.8704
aF0.8629
aF0.8635
aF0.8671
aF0.8651
aF0.8676
aF0.8624
aF0.8702
aF0.8657
aF0.8659
aF0.8658
aF0.8681
aF0.8715
aF0.868
aF0.864
aa(lp17
F0.591
aF0.6856
aF0.6719
aF0.7087
aF0.7768
aF0.7701
aF0.7929
aF0.7901
aF0.8036
aF0.8103
aF0.8156
aF0.8205
aF0.8175
aF0.8239
aF0.8227
aF0.8318
aF0.8281
aF0.8405
aF0.8441
aF0.8351
aF0.8375
aF0.8391
aF0.8388
aF0.8392
aF0.8432
aF0.8478
aF0.8452
aF0.8382
aF0.8514
aF0.8557
aF0.8485
aF0.8531
aF0.862
aF0.8518
aF0.8525
aF0.854
aF0.8495
aF0.8623
aF0.8576
aF0.8614
aF0.8582
aF0.8637
aF0.8562
aF0.8639
aF0.8608
aF0.8594
aF0.8528
aF0.8533
aF0.8609
aF0.8586
aF0.864
aF0.8652
aF0.8618
aF0.8675
aF0.8579
aF0.8597
aF0.8641
aF0.8644
aF0.8642
aF0.8628
aF0.865
aF0.8662
aF0.8622
aF0.8635
aF0.8612
aF0.8682
aF0.8675
aF0.8657
aF0.8702
aF0.8633
aF0.8694
aF0.8731
aF0.8713
aF0.872
aF0.8631
aF0.8722
aF0.8687
aF0.8664
aF0.8717
aa(lp18
F0.5961
aF0.6792
aF0.7089
aF0.7368
aF0.7627
aF0.7804
aF0.7912
aF0.7937
aF0.7891
aF0.8187
aF0.8114
aF0.8045
aF0.8112
aF0.8255
aF0.8333
aF0.8388
aF0.8332
aF0.8313
aF0.832
aF0.832
aF0.8426
aF0.8367
aF0.8421
aF0.8467
aF0.8434
aF0.8499
aF0.8384
aF0.858
aF0.8472
aF0.8515
aF0.8456
aF0.847
aF0.8488
aF0.8488
aF0.8492
aF0.8528
aF0.852
aF0.847
aF0.8624
aF0.8569
aF0.8617
aF0.8603
aF0.8643
aF0.8537
aF0.8614
aF0.863
aF0.8632
aF0.8606
aF0.8582
aF0.8619
aF0.866
aF0.8667
aF0.864
aF0.8663
aF0.8656
aF0.8635
aF0.8626
aF0.8698
aF0.8588
aF0.8606
aF0.8695
aF0.8649
aF0.8694
aF0.8666
aF0.8681
aF0.8663
aF0.871
aF0.8706
aF0.8584
aF0.8675
aF0.8663
aF0.869
aF0.8699
aF0.8635
aF0.8636
aF0.8708
aF0.8658
aF0.8665
aF0.87
aa(lp19
F0.6067
aF0.6154
aF0.73
aF0.7699
aF0.7588
aF0.7818
aF0.792
aF0.7981
aF0.7985
aF0.814
aF0.8092
aF0.8185
aF0.8201
aF0.8221
aF0.8225
aF0.8274
aF0.8326
aF0.8315
aF0.8307
aF0.8368
aF0.8418
aF0.8471
aF0.8328
aF0.8384
aF0.8367
aF0.8514
aF0.8388
aF0.8463
aF0.8485
aF0.8534
aF0.8565
aF0.8567
aF0.8473
aF0.8513
aF0.8601
aF0.852
aF0.862
aF0.8576
aF0.8539
aF0.8566
aF0.8562
aF0.8659
aF0.8535
aF0.8639
aF0.8606
aF0.8612
aF0.8544
aF0.8574
aF0.8633
aF0.863
aF0.8711
aF0.8638
aF0.862
aF0.8576
aF0.8595
aF0.8621
aF0.8581
aF0.8608
aF0.8661
aF0.8638
aF0.8652
aF0.8765
aF0.8632
aF0.8676
aF0.8692
aF0.865
aF0.8547
aF0.8653
aF0.8701
aF0.8692
aF0.8627
aF0.8635
aF0.8638
aF0.8652
aF0.8633
aF0.8681
aF0.8731
aF0.8622
aF0.8736
aa(lp20
F0.6483
aF0.6922
aF0.7433
aF0.7522
aF0.7751
aF0.7828
aF0.778
aF0.7878
aF0.7996
aF0.8068
aF0.807
aF0.8162
aF0.8179
aF0.8212
aF0.8278
aF0.8318
aF0.821
aF0.8339
aF0.8282
aF0.8368
aF0.8423
aF0.8346
aF0.8357
aF0.8435
aF0.847
aF0.8392
aF0.8504
aF0.8479
aF0.8419
aF0.8457
aF0.846
aF0.855
aF0.8486
aF0.851
aF0.8561
aF0.8553
aF0.8523
aF0.8466
aF0.8549
aF0.8596
aF0.8567
aF0.8573
aF0.8592
aF0.8598
aF0.8631
aF0.8564
aF0.8591
aF0.8558
aF0.8635
aF0.8587
aF0.8597
aF0.857
aF0.8657
aF0.8659
aF0.866
aF0.8605
aF0.8614
aF0.863
aF0.8582
aF0.8653
aF0.8644
aF0.8623
aF0.8631
aF0.8707
aF0.8689
aF0.8631
aF0.8639
aF0.8693
aF0.8675
aF0.8679
aF0.8679
aF0.8733
aF0.8698
aF0.8663
aF0.8612
aF0.8684
aF0.8685
aF0.8717
aF0.8668
aa(lp21
F0.6645
aF0.693
aF0.7363
aF0.766
aF0.7623
aF0.7803
aF0.7823
aF0.7886
aF0.8038
aF0.7999
aF0.8013
aF0.8204
aF0.8189
aF0.8263
aF0.8317
aF0.8373
aF0.8368
aF0.8393
aF0.8297
aF0.8382
aF0.8465
aF0.8416
aF0.8433
aF0.8426
aF0.8488
aF0.8493
aF0.8512
aF0.8536
aF0.8456
aF0.8533
aF0.8489
aF0.8552
aF0.8524
aF0.8532
aF0.8545
aF0.8536
aF0.8564
aF0.8497
aF0.8652
aF0.8552
aF0.853
aF0.8515
aF0.8624
aF0.8647
aF0.8545
aF0.8694
aF0.8579
aF0.8562
aF0.8567
aF0.8568
aF0.8614
aF0.8571
aF0.8632
aF0.86
aF0.8672
aF0.8585
aF0.86
aF0.8688
aF0.8674
aF0.8632
aF0.8652
aF0.8704
aF0.8602
aF0.8671
aF0.8686
aF0.8659
aF0.8762
aF0.8639
aF0.8669
aF0.8711
aF0.8723
aF0.8685
aF0.8663
aF0.8599
aF0.8714
aF0.8706
aF0.8703
aF0.8627
aF0.8597
aa(lp22
F0.6585
aF0.7369
aF0.733
aF0.7705
aF0.7687
aF0.7852
aF0.7936
aF0.7969
aF0.7928
aF0.8063
aF0.8034
aF0.8168
aF0.8121
aF0.8184
aF0.8155
aF0.8216
aF0.8346
aF0.8366
aF0.8342
aF0.8384
aF0.8479
aF0.8458
aF0.8415
aF0.8463
aF0.8496
aF0.8457
aF0.8515
aF0.8525
aF0.8492
aF0.8522
aF0.8474
aF0.8498
aF0.8544
aF0.8528
aF0.8531
aF0.8544
aF0.8522
aF0.8598
aF0.85
aF0.8595
aF0.8571
aF0.8579
aF0.8564
aF0.8621
aF0.8595
aF0.856
aF0.86
aF0.8617
aF0.8692
aF0.8621
aF0.8563
aF0.8622
aF0.8635
aF0.8588
aF0.863
aF0.8633
aF0.8613
aF0.8604
aF0.8671
aF0.8671
aF0.8639
aF0.8659
aF0.8576
aF0.8644
aF0.8651
aF0.8706
aF0.8719
aF0.8654
aF0.8688
aF0.8626
aF0.8684
aF0.8672
aF0.8628
aF0.8656
aF0.8664
aF0.8674
aF0.8645
aF0.8663
aF0.8624
aa(lp23
F0.6875
aF0.7315
aF0.7442
aF0.756
aF0.7742
aF0.7877
aF0.7859
aF0.7975
aF0.7947
aF0.8081
aF0.8177
aF0.8254
aF0.8256
aF0.822
aF0.8213
aF0.831
aF0.8346
aF0.8305
aF0.8361
aF0.8414
aF0.8313
aF0.8354
aF0.8505
aF0.8416
aF0.8495
aF0.846
aF0.8539
aF0.8427
aF0.8575
aF0.8434
aF0.8468
aF0.8495
aF0.8532
aF0.8484
aF0.8572
aF0.8487
aF0.8604
aF0.8546
aF0.8521
aF0.8581
aF0.8681
aF0.853
aF0.8551
aF0.8536
aF0.8564
aF0.8599
aF0.8545
aF0.8602
aF0.8545
aF0.8667
aF0.8494
aF0.8613
aF0.862
aF0.8588
aF0.8626
aF0.8616
aF0.8606
aF0.8665
aF0.8683
aF0.8646
aF0.8581
aF0.8652
aF0.862
aF0.8628
aF0.8696
aF0.8658
aF0.8663
aF0.8654
aF0.8687
aF0.8642
aF0.8604
aF0.868
aF0.8682
aF0.8646
aF0.8678
aF0.8601
aF0.8693
aF0.8672
aF0.863
aa(lp24
F0.6761
aF0.7314
aF0.7423
aF0.7463
aF0.7681
aF0.7712
aF0.7833
aF0.7982
aF0.8003
aF0.8051
aF0.8196
aF0.8234
aF0.8174
aF0.8255
aF0.8253
aF0.832
aF0.8245
aF0.8298
aF0.8359
aF0.8373
aF0.8369
aF0.8331
aF0.8374
aF0.8448
aF0.8414
aF0.8528
aF0.8413
aF0.8525
aF0.843
aF0.8433
aF0.854
aF0.8489
aF0.854
aF0.8551
aF0.8466
aF0.8584
aF0.8532
aF0.8493
aF0.8516
aF0.863
aF0.8539
aF0.8633
aF0.861
aF0.8573
aF0.86
aF0.8591
aF0.8646
aF0.8588
aF0.8625
aF0.8595
aF0.8659
aF0.8662
aF0.8608
aF0.8573
aF0.8621
aF0.8609
aF0.867
aF0.8568
aF0.8652
aF0.8663
aF0.8602
aF0.8643
aF0.8655
aF0.8679
aF0.8677
aF0.8618
aF0.8679
aF0.87
aF0.8701
aF0.8655
aF0.8706
aF0.8722
aF0.8665
aF0.8748
aF0.8644
aF0.8677
aF0.8705
aF0.8663
aF0.8658
aa(lp25
F0.6611
aF0.7373
aF0.7473
aF0.7794
aF0.7754
aF0.7828
aF0.7816
aF0.7952
aF0.8042
aF0.8016
aF0.8162
aF0.8203
aF0.8132
aF0.8137
aF0.8306
aF0.8271
aF0.8277
aF0.8399
aF0.8369
aF0.8409
aF0.8297
aF0.8428
aF0.8437
aF0.8446
aF0.8503
aF0.8462
aF0.8509
aF0.8437
aF0.8458
aF0.85
aF0.8469
aF0.8521
aF0.8547
aF0.846
aF0.8559
aF0.8589
aF0.8585
aF0.8518
aF0.8566
aF0.8531
aF0.8611
aF0.8609
aF0.8531
aF0.8603
aF0.8574
aF0.8603
aF0.861
aF0.8644
aF0.8604
aF0.8602
aF0.8618
aF0.8558
aF0.8571
aF0.8584
aF0.8658
aF0.8598
aF0.866
aF0.8595
aF0.8616
aF0.8608
aF0.8686
aF0.8624
aF0.8642
aF0.8635
aF0.8637
aF0.8673
aF0.8684
aF0.8637
aF0.8624
aF0.8711
aF0.8778
aF0.8663
aF0.867
aF0.8724
aF0.8706
aF0.8718
aF0.8687
aF0.8755
aF0.8672
aa(lp26
F0.7062
aF0.7233
aF0.7477
aF0.7648
aF0.7757
aF0.7879
aF0.7864
aF0.7991
aF0.8028
aF0.8062
aF0.8057
aF0.8142
aF0.8184
aF0.8231
aF0.8294
aF0.828
aF0.833
aF0.8344
aF0.8399
aF0.8361
aF0.8367
aF0.8456
aF0.8404
aF0.8397
aF0.84
aF0.8477
aF0.8481
aF0.8508
aF0.8549
aF0.8476
aF0.8482
aF0.8545
aF0.8472
aF0.8594
aF0.8591
aF0.8551
aF0.8542
aF0.844
aF0.8511
aF0.8526
aF0.8591
aF0.8547
aF0.856
aF0.8607
aF0.8647
aF0.8533
aF0.8613
aF0.8616
aF0.8584
aF0.8618
aF0.8563
aF0.8641
aF0.8643
aF0.8587
aF0.8609
aF0.8614
aF0.8591
aF0.8721
aF0.8564
aF0.87
aF0.871
aF0.8622
aF0.867
aF0.8654
aF0.8598
aF0.8657
aF0.8708
aF0.8662
aF0.8593
aF0.8754
aF0.8642
aF0.8696
aF0.8697
aF0.8674
aF0.8669
aF0.8692
aF0.8693
aF0.8654
aF0.8718
aa(lp27
F0.6675
aF0.725
aF0.7367
aF0.7606
aF0.7867
aF0.7789
aF0.7854
aF0.8007
aF0.8006
aF0.8007
aF0.8126
aF0.8159
aF0.828
aF0.8289
aF0.8274
aF0.8213
aF0.8392
aF0.8309
aF0.8351
aF0.8344
aF0.8336
aF0.844
aF0.8309
aF0.8395
aF0.841
aF0.8454
aF0.8461
aF0.8498
aF0.8465
aF0.8489
aF0.8539
aF0.8461
aF0.8535
aF0.8538
aF0.8575
aF0.8629
aF0.8536
aF0.8579
aF0.8529
aF0.863
aF0.8531
aF0.8568
aF0.8514
aF0.8545
aF0.8489
aF0.8559
aF0.8647
aF0.8627
aF0.8533
aF0.8552
aF0.8595
aF0.858
aF0.8648
aF0.8582
aF0.8614
aF0.8641
aF0.8677
aF0.8691
aF0.8657
aF0.868
aF0.8685
aF0.8622
aF0.8598
aF0.8614
aF0.8712
aF0.8644
aF0.8688
aF0.8671
aF0.8707
aF0.871
aF0.872
aF0.8616
aF0.867
aF0.8655
aF0.8676
aF0.87
aF0.8696
aF0.8674
aF0.8762
aa(lp28
F0.6807
aF0.7245
aF0.7344
aF0.7629
aF0.7726
aF0.7791
aF0.797
aF0.8092
aF0.8006
aF0.8081
aF0.8166
aF0.809
aF0.8187
aF0.8183
aF0.8246
aF0.8291
aF0.8248
aF0.8338
aF0.8316
aF0.8313
aF0.8381
aF0.8428
aF0.8459
aF0.8402
aF0.85
aF0.8479
aF0.85
aF0.8469
aF0.8433
aF0.8476
aF0.8506
aF0.8471
aF0.8519
aF0.8522
aF0.8574
aF0.8537
aF0.8566
aF0.8629
aF0.853
aF0.8523
aF0.858
aF0.8552
aF0.8517
aF0.8637
aF0.8552
aF0.8614
aF0.8614
aF0.8498
aF0.8588
aF0.861
aF0.8649
aF0.8657
aF0.8597
aF0.8581
aF0.8682
aF0.861
aF0.8646
aF0.8664
aF0.8637
aF0.8682
aF0.8662
aF0.865
aF0.8616
aF0.8639
aF0.864
aF0.863
aF0.8676
aF0.8613
aF0.8649
aF0.8623
aF0.8675
aF0.8714
aF0.8696
aF0.8702
aF0.8686
aF0.8703
aF0.8648
aF0.8708
aF0.8706
aa(lp29
F0.7169
aF0.7156
aF0.7373
aF0.7612
aF0.7659
aF0.7862
aF0.7883
aF0.7969
aF0.8059
aF0.8093
aF0.8084
aF0.8104
aF0.8252
aF0.8221
aF0.8262
aF0.8285
aF0.8308
aF0.8362
aF0.8441
aF0.8347
aF0.8366
aF0.8466
aF0.8434
aF0.8294
aF0.8383
aF0.8452
aF0.8445
aF0.8489
aF0.8432
aF0.8535
aF0.8523
aF0.8521
aF0.8563
aF0.8574
aF0.8465
aF0.8563
aF0.8704
aF0.8532
aF0.8553
aF0.8514
aF0.8572
aF0.8544
aF0.8603
aF0.8508
aF0.8645
aF0.865
aF0.8558
aF0.8582
aF0.8629
aF0.8657
aF0.8622
aF0.8689
aF0.865
aF0.8626
aF0.866
aF0.8624
aF0.863
aF0.8679
aF0.8607
aF0.8636
aF0.8707
aF0.8604
aF0.8688
aF0.861
aF0.862
aF0.8708
aF0.8708
aF0.8669
aF0.8689
aF0.8688
aF0.8731
aF0.8666
aF0.8689
aF0.8679
aF0.8657
aF0.8729
aF0.859
aF0.8647
aF0.8657
aa(lp30
F0.6928
aF0.7259
aF0.745
aF0.7556
aF0.7617
aF0.7794
aF0.7924
aF0.8072
aF0.7998
aF0.8053
aF0.8099
aF0.8156
aF0.8223
aF0.8284
aF0.8354
aF0.8286
aF0.8263
aF0.8326
aF0.8342
aF0.8404
aF0.8428
aF0.8343
aF0.8421
aF0.839
aF0.8469
aF0.841
aF0.8493
aF0.8515
aF0.848
aF0.845
aF0.8505
aF0.8536
aF0.8573
aF0.8527
aF0.8501
aF0.8565
aF0.8572
aF0.851
aF0.8626
aF0.8529
aF0.8553
aF0.8544
aF0.8527
aF0.8562
aF0.8578
aF0.8556
aF0.8549
aF0.8628
aF0.8635
aF0.8591
aF0.8663
aF0.8594
aF0.8565
aF0.868
aF0.8631
aF0.8657
aF0.8675
aF0.8634
aF0.8604
aF0.8657
aF0.8613
aF0.8687
aF0.8657
aF0.8636
aF0.8682
aF0.867
aF0.8609
aF0.8678
aF0.8692
aF0.8699
aF0.8671
aF0.8608
aF0.8723
aF0.8718
aF0.8668
aF0.8639
aF0.8703
aF0.8676
aF0.8641
aa(lp31
F0.7072
aF0.7337
aF0.741
aF0.7611
aF0.7769
aF0.7778
aF0.7863
aF0.7931
aF0.7982
aF0.8154
aF0.8123
aF0.8204
aF0.8213
aF0.822
aF0.822
aF0.8244
aF0.8283
aF0.8367
aF0.8417
aF0.8324
aF0.8352
aF0.8307
aF0.8433
aF0.8386
aF0.8405
aF0.8475
aF0.8423
aF0.8472
aF0.8516
aF0.8552
aF0.8525
aF0.8612
aF0.8501
aF0.8524
aF0.8618
aF0.8439
aF0.8514
aF0.8557
aF0.8507
aF0.8509
aF0.863
aF0.8602
aF0.8607
aF0.8607
aF0.8587
aF0.8569
aF0.8604
aF0.8569
aF0.8667
aF0.8571
aF0.854
aF0.8602
aF0.8597
aF0.8653
aF0.8601
aF0.8623
aF0.8658
aF0.8705
aF0.8638
aF0.8616
aF0.8623
aF0.858
aF0.8684
aF0.8675
aF0.8683
aF0.8719
aF0.8687
aF0.8698
aF0.8687
aF0.869
aF0.8673
aF0.8705
aF0.8674
aF0.8647
aF0.8652
aF0.8642
aF0.8681
aF0.8704
aF0.8734
aa(lp32
F0.7071
aF0.7255
aF0.7504
aF0.7738
aF0.7774
aF0.7878
aF0.787
aF0.7914
aF0.8057
aF0.818
aF0.8203
aF0.8221
aF0.8259
aF0.8183
aF0.8377
aF0.824
aF0.8247
aF0.8345
aF0.8315
aF0.8289
aF0.8341
aF0.8332
aF0.855
aF0.8422
aF0.8369
aF0.8475
aF0.839
aF0.8477
aF0.8499
aF0.8522
aF0.8486
aF0.8496
aF0.851
aF0.8554
aF0.8565
aF0.8547
aF0.8583
aF0.8556
aF0.8529
aF0.857
aF0.8544
aF0.8578
aF0.8624
aF0.8534
aF0.862
aF0.8577
aF0.864
aF0.8561
aF0.8556
aF0.8604
aF0.8643
aF0.8638
aF0.8586
aF0.8617
aF0.8644
aF0.8724
aF0.8666
aF0.8649
aF0.8704
aF0.8646
aF0.8657
aF0.8613
aF0.8644
aF0.8634
aF0.8629
aF0.8684
aF0.8578
aF0.8686
aF0.8673
aF0.866
aF0.867
aF0.8725
aF0.8632
aF0.8589
aF0.87
aF0.8694
aF0.8662
aF0.8672
aF0.8671
aa(lp33
F0.7039
aF0.7484
aF0.7554
aF0.7475
aF0.7736
aF0.776
aF0.7865
aF0.8005
aF0.8055
aF0.806
aF0.8133
aF0.8278
aF0.8075
aF0.8261
aF0.8304
aF0.8311
aF0.8312
aF0.8377
aF0.8369
aF0.8366
aF0.8303
aF0.8417
aF0.8395
aF0.8448
aF0.8441
aF0.8393
aF0.8435
aF0.8417
aF0.8527
aF0.849
aF0.8553
aF0.8481
aF0.8488
aF0.8534
aF0.8531
aF0.8528
aF0.8609
aF0.8528
aF0.8573
aF0.8545
aF0.853
aF0.8593
aF0.8582
aF0.8596
aF0.8633
aF0.8576
aF0.8611
aF0.8529
aF0.8646
aF0.8566
aF0.8569
aF0.8597
aF0.8593
aF0.8585
aF0.8647
aF0.8626
aF0.8619
aF0.8689
aF0.8587
aF0.8655
aF0.8657
aF0.8693
aF0.8609
aF0.8627
aF0.8662
aF0.8672
aF0.8632
aF0.8713
aF0.8728
aF0.8606
aF0.8691
aF0.8667
aF0.8616
aF0.8688
aF0.8721
aF0.8706
aF0.8669
aF0.8656
aF0.876
aa(lp34
F0.7214
aF0.7435
aF0.7461
aF0.75
aF0.7853
aF0.7783
aF0.7877
aF0.7999
aF0.8165
aF0.8026
aF0.8157
aF0.8226
aF0.8253
aF0.819
aF0.8322
aF0.8306
aF0.8414
aF0.8374
aF0.8316
aF0.8291
aF0.842
aF0.8456
aF0.8502
aF0.8397
aF0.8436
aF0.8397
aF0.8483
aF0.8454
aF0.8573
aF0.8465
aF0.8507
aF0.851
aF0.8633
aF0.8481
aF0.8548
aF0.8475
aF0.8589
aF0.8548
aF0.8518
aF0.8591
aF0.855
aF0.8625
aF0.8565
aF0.8558
aF0.8646
aF0.8599
aF0.8526
aF0.8562
aF0.8606
aF0.8635
aF0.8626
aF0.8614
aF0.862
aF0.8628
aF0.8623
aF0.8604
aF0.8602
aF0.8671
aF0.8568
aF0.8645
aF0.8611
aF0.8679
aF0.866
aF0.8626
aF0.8671
aF0.8655
aF0.8643
aF0.8673
aF0.8696
aF0.8679
aF0.8669
aF0.8701
aF0.8708
aF0.8663
aF0.867
aF0.8793
aF0.8691
aF0.8721
aF0.8679
aa(lp35
F0.7115
aF0.7284
aF0.7508
aF0.7733
aF0.7689
aF0.7843
aF0.7798
aF0.7945
aF0.7954
aF0.8131
aF0.8157
aF0.8224
aF0.8236
aF0.8248
aF0.8247
aF0.8318
aF0.8246
aF0.8302
aF0.8314
aF0.8303
aF0.836
aF0.8352
aF0.842
aF0.8389
aF0.8447
aF0.8502
aF0.8496
aF0.8538
aF0.8549
aF0.8481
aF0.852
aF0.8507
aF0.8597
aF0.8478
aF0.8448
aF0.8545
aF0.8602
aF0.8542
aF0.8611
aF0.861
aF0.8549
aF0.8554
aF0.8577
aF0.8606
aF0.8569
aF0.8561
aF0.8596
aF0.8601
aF0.8597
aF0.8578
aF0.8672
aF0.858
aF0.8614
aF0.8648
aF0.8698
aF0.8582
aF0.8659
aF0.8651
aF0.865
aF0.8639
aF0.8681
aF0.8629
aF0.8678
aF0.8717
aF0.8629
aF0.8652
aF0.8639
aF0.8628
aF0.8641
aF0.8661
aF0.8698
aF0.8722
aF0.8687
aF0.8675
aF0.8747
aF0.8641
aF0.8695
aF0.865
aF0.8639
aa(lp36
F0.7209
aF0.7464
aF0.7505
aF0.7618
aF0.7831
aF0.7826
aF0.7824
aF0.793
aF0.809
aF0.8125
aF0.8152
aF0.8065
aF0.8043
aF0.8124
aF0.819
aF0.8276
aF0.8266
aF0.8291
aF0.8334
aF0.8287
aF0.8417
aF0.8414
aF0.8457
aF0.8423
aF0.8441
aF0.8494
aF0.8418
aF0.847
aF0.8464
aF0.8365
aF0.8527
aF0.85
aF0.8499
aF0.8557
aF0.8582
aF0.8513
aF0.8546
aF0.8551
aF0.8577
aF0.8551
aF0.8563
aF0.8611
aF0.8616
aF0.8533
aF0.8456
aF0.8602
aF0.8594
aF0.8624
aF0.8597
aF0.8615
aF0.8612
aF0.8571
aF0.8657
aF0.8615
aF0.8601
aF0.8618
aF0.8643
aF0.8642
aF0.8652
aF0.8635
aF0.8701
aF0.8669
aF0.8682
aF0.8651
aF0.8601
aF0.8619
aF0.8647
aF0.8649
aF0.8623
aF0.867
aF0.8727
aF0.8673
aF0.8701
aF0.8701
aF0.8675
aF0.8693
aF0.8701
aF0.8691
aF0.8651
aa(lp37
F0.7088
aF0.7452
aF0.7518
aF0.7563
aF0.7755
aF0.7888
aF0.7846
aF0.7942
aF0.8041
aF0.8092
aF0.8073
aF0.8077
aF0.8165
aF0.8207
aF0.8266
aF0.8273
aF0.8329
aF0.8321
aF0.8427
aF0.8338
aF0.8381
aF0.838
aF0.8341
aF0.8338
aF0.852
aF0.8455
aF0.8457
aF0.8436
aF0.857
aF0.8523
aF0.8524
aF0.8493
aF0.8541
aF0.8437
aF0.8467
aF0.8534
aF0.8521
aF0.8552
aF0.8583
aF0.8606
aF0.86
aF0.8518
aF0.8621
aF0.8636
aF0.8522
aF0.861
aF0.8632
aF0.8656
aF0.8537
aF0.8536
aF0.8676
aF0.8572
aF0.8694
aF0.8648
aF0.8606
aF0.8577
aF0.8676
aF0.8643
aF0.8594
aF0.8581
aF0.8651
aF0.8613
aF0.8631
aF0.8714
aF0.8692
aF0.8633
aF0.8683
aF0.8702
aF0.8674
aF0.8644
aF0.8708
aF0.8634
aF0.8676
aF0.8683
aF0.8654
aF0.8615
aF0.865
aF0.8725
aF0.862
aa(lp38
F0.7086
aF0.718
aF0.7593
aF0.7698
aF0.7707
aF0.7868
aF0.7916
aF0.7948
aF0.8141
aF0.8096
aF0.8123
aF0.8133
aF0.8216
aF0.8245
aF0.8233
aF0.8329
aF0.8331
aF0.8349
aF0.8425
aF0.84
aF0.8341
aF0.8335
aF0.8435
aF0.8468
aF0.8372
aF0.8473
aF0.8526
aF0.8533
aF0.8482
aF0.8532
aF0.8522
aF0.8538
aF0.8458
aF0.8582
aF0.8552
aF0.8568
aF0.8511
aF0.858
aF0.8636
aF0.8556
aF0.8522
aF0.8574
aF0.8573
aF0.8582
aF0.8612
aF0.8612
aF0.8631
aF0.8618
aF0.8593
aF0.8581
aF0.8596
aF0.8628
aF0.8637
aF0.8686
aF0.8667
aF0.8669
aF0.8679
aF0.8617
aF0.8657
aF0.8679
aF0.8641
aF0.8709
aF0.863
aF0.8676
aF0.8628
aF0.8659
aF0.8633
aF0.8673
aF0.8723
aF0.8685
aF0.8697
aF0.8624
aF0.8674
aF0.8727
aF0.8614
aF0.8716
aF0.8684
aF0.8673
aF0.8625
aa(lp39
F0.7261
aF0.7412
aF0.7629
aF0.7654
aF0.7665
aF0.7918
aF0.7707
aF0.7878
aF0.8086
aF0.8131
aF0.8037
aF0.8212
aF0.8132
aF0.8267
aF0.8302
aF0.8242
aF0.8323
aF0.8319
aF0.8298
aF0.8351
aF0.839
aF0.8415
aF0.8393
aF0.8423
aF0.8435
aF0.8529
aF0.8423
aF0.8519
aF0.8524
aF0.8509
aF0.8536
aF0.8547
aF0.8529
aF0.847
aF0.8578
aF0.8642
aF0.8566
aF0.8584
aF0.8577
aF0.8603
aF0.8584
aF0.8548
aF0.848
aF0.8523
aF0.8593
aF0.8571
aF0.8568
aF0.8691
aF0.8623
aF0.8596
aF0.8598
aF0.8611
aF0.8597
aF0.8675
aF0.8753
aF0.8617
aF0.8659
aF0.8646
aF0.855
aF0.8696
aF0.8642
aF0.8599
aF0.8665
aF0.8652
aF0.8666
aF0.8637
aF0.8629
aF0.8694
aF0.8716
aF0.8664
aF0.8718
aF0.8632
aF0.8637
aF0.8718
aF0.87
aF0.8622
aF0.868
aF0.8652
aF0.8676
aa(lp40
F0.7292
aF0.7476
aF0.7369
aF0.7556
aF0.7722
aF0.7825
aF0.7903
aF0.794
aF0.8059
aF0.8147
aF0.8096
aF0.82
aF0.8263
aF0.8264
aF0.8238
aF0.824
aF0.827
aF0.8363
aF0.8385
aF0.838
aF0.8383
aF0.8474
aF0.8427
aF0.8389
aF0.8477
aF0.848
aF0.8414
aF0.8433
aF0.8421
aF0.854
aF0.8519
aF0.847
aF0.8514
aF0.855
aF0.8555
aF0.8459
aF0.8498
aF0.8559
aF0.8614
aF0.8523
aF0.8584
aF0.8473
aF0.8645
aF0.8631
aF0.8633
aF0.8591
aF0.8546
aF0.8595
aF0.8686
aF0.8549
aF0.8606
aF0.8606
aF0.8568
aF0.8679
aF0.8633
aF0.8682
aF0.859
aF0.8652
aF0.8657
aF0.8629
aF0.8696
aF0.8651
aF0.8678
aF0.8646
aF0.8622
aF0.8665
aF0.8656
aF0.8673
aF0.8676
aF0.862
aF0.8745
aF0.8685
aF0.8682
aF0.8726
aF0.8666
aF0.8723
aF0.8663
aF0.8656
aF0.8708
aa.