(lp0
(lp1
F0.1135
aF0.1223
aF0.1298
aF0.1963
aF0.1749
aF0.1826
aF0.2067
aF0.1912
aF0.1785
aF0.1895
aF0.1848
aF0.1913
aF0.1994
aF0.1785
aF0.1774
aF0.196
aF0.2001
aF0.2017
aF0.2011
aF0.207
aF0.1812
aF0.1964
aF0.196
aF0.2013
aF0.196
aF0.2013
aF0.2067
aF0.2011
aF0.1772
aF0.2026
aF0.201
aF0.1826
aF0.1963
aF0.206
aF0.2011
aF0.1963
aF0.1591
aF0.2067
aF0.1938
aF0.2018
aF0.2096
aF0.1994
aF0.1772
aF0.207
aF0.1981
aF0.1772
aF0.201
aF0.207
aF0.1772
aF0.1901
aF0.1994
aF0.206
aF0.1774
aF0.1963
aF0.206
aF0.2088
aF0.207
aF0.2088
aF0.2026
aF0.1826
aF0.2061
aF0.1994
aF0.1963
aF0.1826
aF0.1963
aF0.1913
aF0.206
aF0.196
aF0.1963
aF0.194
aF0.2067
aF0.1964
aF0.1994
aF0.1826
aF0.1963
aF0.207
aF0.2018
aF0.2067
aF0.1963
aa(lp2
F0.1672
aF0.2135
aF0.2006
aF0.2362
aF0.1793
aF0.28
aF0.2983
aF0.2764
aF0.2648
aF0.2818
aF0.3145
aF0.3126
aF0.3126
aF0.2831
aF0.2734
aF0.2927
aF0.2994
aF0.2832
aF0.2956
aF0.308
aF0.3406
aF0.2941
aF0.3311
aF0.3042
aF0.275
aF0.2935
aF0.3174
aF0.2919
aF0.3442
aF0.2954
aF0.3073
aF0.2802
aF0.3173
aF0.3002
aF0.3315
aF0.3186
aF0.2944
aF0.3008
aF0.3146
aF0.2852
aF0.2882
aF0.3017
aF0.3263
aF0.3103
aF0.3042
aF0.3182
aF0.3366
aF0.3236
aF0.3276
aF0.3283
aF0.3221
aF0.2773
aF0.3416
aF0.3052
aF0.3061
aF0.3114
aF0.2972
aF0.3216
aF0.324
aF0.3087
aF0.3245
aF0.3298
aF0.3426
aF0.3278
aF0.3376
aF0.3225
aF0.3371
aF0.2745
aF0.3313
aF0.3114
aF0.3403
aF0.3327
aF0.3411
aF0.3213
aF0.3269
aF0.3146
aF0.3248
aF0.3237
aF0.326
aa(lp3
F0.1794
aF0.2617
aF0.3454
aF0.3316
aF0.3883
aF0.3505
aF0.3353
aF0.3479
aF0.3143
aF0.3437
aF0.3751
aF0.346
aF0.417
aF0.3712
aF0.4171
aF0.3664
aF0.3731
aF0.4086
aF0.3817
aF0.3688
aF0.4085
aF0.4315
aF0.4216
aF0.3765
aF0.4353
aF0.4097
aF0.4084
aF0.4193
aF0.4738
aF0.4593
aF0.4243
aF0.3613
aF0.3763
aF0.4026
aF0.4399
aF0.4521
aF0.3979
aF0.4249
aF0.4167
aF0.4441
aF0.4259
aF0.429
aF0.442
aF0.4536
aF0.3999
aF0.4419
aF0.4167
aF0.4594
aF0.4392
aF0.4
aF0.4432
aF0.4633
aF0.4571
aF0.4254
aF0.4245
aF0.4339
aF0.4825
aF0.428
aF0.4545
aF0.4426
aF0.434
aF0.4582
aF0.4574
aF0.4392
aF0.4518
aF0.4158
aF0.4346
aF0.4475
aF0.4679
aF0.4239
aF0.4753
aF0.406
aF0.4487
aF0.476
aF0.4475
aF0.4617
aF0.4306
aF0.4247
aF0.4733
aa(lp4
F0.2455
aF0.3592
aF0.2498
aF0.4012
aF0.4016
aF0.3796
aF0.4133
aF0.4315
aF0.4338
aF0.4605
aF0.4242
aF0.4261
aF0.4285
aF0.5171
aF0.4446
aF0.4679
aF0.5015
aF0.4825
aF0.4323
aF0.4914
aF0.4908
aF0.5218
aF0.4947
aF0.5115
aF0.5163
aF0.5028
aF0.5115
aF0.4906
aF0.483
aF0.4771
aF0.4932
aF0.5258
aF0.5292
aF0.4923
aF0.5109
aF0.5137
aF0.4888
aF0.5304
aF0.5225
aF0.5112
aF0.5202
aF0.5453
aF0.5435
aF0.5388
aF0.5521
aF0.5489
aF0.4837
aF0.5539
aF0.4987
aF0.5072
aF0.5057
aF0.5322
aF0.5045
aF0.5534
aF0.5835
aF0.5419
aF0.555
aF0.5427
aF0.5212
aF0.5166
aF0.5016
aF0.5145
aF0.5329
aF0.5133
aF0.5487
aF0.5253
aF0.503
aF0.5362
aF0.5606
aF0.5729
aF0.5556
aF0.4952
aF0.5151
aF0.5295
aF0.5832
aF0.5364
aF0.5314
aF0.5694
aF0.5408
aa(lp5
F0.2518
aF0.2568
aF0.4078
aF0.4193
aF0.3947
aF0.4053
aF0.49
aF0.5056
aF0.5215
aF0.5213
aF0.4906
aF0.5173
aF0.5141
aF0.5196
aF0.5169
aF0.5292
aF0.5465
aF0.4827
aF0.5217
aF0.566
aF0.5015
aF0.5661
aF0.5748
aF0.5499
aF0.5809
aF0.5668
aF0.5262
aF0.5596
aF0.5876
aF0.5683
aF0.6231
aF0.582
aF0.5644
aF0.5885
aF0.5958
aF0.5706
aF0.5626
aF0.5742
aF0.5871
aF0.594
aF0.6056
aF0.5951
aF0.5802
aF0.556
aF0.6039
aF0.5834
aF0.6034
aF0.585
aF0.6166
aF0.6077
aF0.6154
aF0.6045
aF0.5955
aF0.6203
aF0.613
aF0.6029
aF0.5843
aF0.6327
aF0.6127
aF0.6152
aF0.61
aF0.5739
aF0.6141
aF0.5978
aF0.6154
aF0.6069
aF0.6137
aF0.6163
aF0.6372
aF0.6049
aF0.6341
aF0.61
aF0.6694
aF0.6324
aF0.5994
aF0.6397
aF0.6453
aF0.6309
aF0.6313
aa(lp6
F0.2694
aF0.3946
aF0.4005
aF0.4522
aF0.4733
aF0.5565
aF0.5324
aF0.5214
aF0.5316
aF0.5246
aF0.5266
aF0.5995
aF0.5754
aF0.6162
aF0.5877
aF0.5846
aF0.5801
aF0.579
aF0.6209
aF0.6342
aF0.6269
aF0.643
aF0.6305
aF0.6242
aF0.619
aF0.6405
aF0.612
aF0.6331
aF0.6506
aF0.6577
aF0.6626
aF0.6082
aF0.6547
aF0.6435
aF0.6661
aF0.6783
aF0.6299
aF0.6619
aF0.6771
aF0.6139
aF0.6631
aF0.6582
aF0.6703
aF0.6902
aF0.7092
aF0.6812
aF0.6758
aF0.6602
aF0.6615
aF0.672
aF0.6773
aF0.6862
aF0.6793
aF0.6845
aF0.6795
aF0.6593
aF0.6663
aF0.6564
aF0.6939
aF0.6858
aF0.6948
aF0.6707
aF0.6685
aF0.681
aF0.6732
aF0.7097
aF0.6725
aF0.6655
aF0.7267
aF0.6832
aF0.6888
aF0.678
aF0.6805
aF0.6807
aF0.6983
aF0.7047
aF0.6846
aF0.6889
aF0.6938
aa(lp7
F0.3711
aF0.4221
aF0.4293
aF0.5577
aF0.5074
aF0.5472
aF0.6017
aF0.5831
aF0.5653
aF0.6561
aF0.621
aF0.6316
aF0.5392
aF0.6138
aF0.6802
aF0.6762
aF0.6655
aF0.6623
aF0.6325
aF0.6473
aF0.6903
aF0.6918
aF0.6914
aF0.7107
aF0.7063
aF0.717
aF0.7083
aF0.6979
aF0.6991
aF0.6753
aF0.6898
aF0.7213
aF0.707
aF0.7232
aF0.6944
aF0.6836
aF0.7403
aF0.7082
aF0.6991
aF0.727
aF0.713
aF0.7177
aF0.7317
aF0.7164
aF0.752
aF0.7406
aF0.6981
aF0.7255
aF0.7377
aF0.7277
aF0.684
aF0.7169
aF0.7358
aF0.732
aF0.7125
aF0.7634
aF0.7372
aF0.7585
aF0.7268
aF0.7065
aF0.7255
aF0.733
aF0.7266
aF0.7185
aF0.7332
aF0.7216
aF0.7486
aF0.7315
aF0.7298
aF0.7387
aF0.7246
aF0.7337
aF0.7662
aF0.7437
aF0.7403
aF0.7486
aF0.7363
aF0.7252
aF0.7446
aa(lp8
F0.3828
aF0.5326
aF0.5534
aF0.5865
aF0.606
aF0.6051
aF0.6222
aF0.5709
aF0.6856
aF0.6421
aF0.6764
aF0.6575
aF0.7005
aF0.7012
aF0.6804
aF0.7025
aF0.7109
aF0.7268
aF0.6875
aF0.7445
aF0.7258
aF0.7218
aF0.7313
aF0.7062
aF0.7389
aF0.7502
aF0.7304
aF0.7488
aF0.7167
aF0.7423
aF0.7458
aF0.7483
aF0.7432
aF0.7432
aF0.7397
aF0.7567
aF0.752
aF0.752
aF0.7737
aF0.7513
aF0.7678
aF0.7663
aF0.7614
aF0.7508
aF0.7593
aF0.7748
aF0.7771
aF0.7551
aF0.7806
aF0.7499
aF0.7684
aF0.7588
aF0.7588
aF0.7718
aF0.7776
aF0.7536
aF0.7685
aF0.7598
aF0.7625
aF0.762
aF0.7669
aF0.7861
aF0.7616
aF0.7644
aF0.7561
aF0.7863
aF0.7732
aF0.7604
aF0.7614
aF0.7749
aF0.7961
aF0.7744
aF0.7861
aF0.7915
aF0.7679
aF0.7818
aF0.7796
aF0.7703
aF0.7717
aa(lp9
F0.4219
aF0.4393
aF0.5956
aF0.5907
aF0.6356
aF0.6372
aF0.6393
aF0.6579
aF0.6675
aF0.6709
aF0.7048
aF0.7314
aF0.6723
aF0.6984
aF0.7071
aF0.7414
aF0.743
aF0.738
aF0.7681
aF0.7318
aF0.7439
aF0.7759
aF0.7568
aF0.7618
aF0.7679
aF0.7635
aF0.7675
aF0.7813
aF0.7907
aF0.7842
aF0.7787
aF0.7832
aF0.7829
aF0.7777
aF0.7816
aF0.7609
aF0.7861
aF0.7846
aF0.783
aF0.7816
aF0.7941
aF0.777
aF0.7916
aF0.7894
aF0.7847
aF0.7879
aF0.7999
aF0.8108
aF0.8001
aF0.794
aF0.8045
aF0.815
aF0.8034
aF0.8053
aF0.805
aF0.8046
aF0.7993
aF0.7982
aF0.7992
aF0.7935
aF0.7891
aF0.8117
aF0.8098
aF0.7972
aF0.8094
aF0.7983
aF0.8126
aF0.8108
aF0.7784
aF0.8172
aF0.8076
aF0.8087
aF0.8111
aF0.8253
aF0.8147
aF0.8115
aF0.8157
aF0.813
aF0.8167
aa(lp10
F0.4181
aF0.5129
aF0.5466
aF0.6221
aF0.6527
aF0.6879
aF0.7085
aF0.708
aF0.7323
aF0.7371
aF0.7118
aF0.7438
aF0.7507
aF0.7685
aF0.7791
aF0.7396
aF0.7771
aF0.7839
aF0.7695
aF0.7823
aF0.7861
aF0.7787
aF0.7922
aF0.8029
aF0.791
aF0.8033
aF0.78
aF0.8045
aF0.7937
aF0.7923
aF0.7804
aF0.7925
aF0.8239
aF0.8026
aF0.8048
aF0.8105
aF0.797
aF0.8187
aF0.8079
aF0.8254
aF0.8133
aF0.8047
aF0.8185
aF0.8234
aF0.8204
aF0.821
aF0.8247
aF0.82
aF0.8234
aF0.8291
aF0.8106
aF0.8194
aF0.8234
aF0.8306
aF0.8218
aF0.8298
aF0.8292
aF0.8188
aF0.8107
aF0.8202
aF0.8217
aF0.8187
aF0.8342
aF0.8317
aF0.8216
aF0.8314
aF0.8282
aF0.8284
aF0.8227
aF0.8031
aF0.8186
aF0.8416
aF0.8217
aF0.8302
aF0.8331
aF0.8365
aF0.8428
aF0.8402
aF0.8493
aa(lp11
F0.4138
aF0.5303
aF0.5764
aF0.6636
aF0.674
aF0.7122
aF0.7164
aF0.7013
aF0.7403
aF0.7711
aF0.7483
aF0.7831
aF0.7427
aF0.787
aF0.7774
aF0.8049
aF0.7956
aF0.7961
aF0.7866
aF0.8153
aF0.8073
aF0.8097
aF0.7947
aF0.816
aF0.814
aF0.8177
aF0.8061
aF0.8152
aF0.8193
aF0.819
aF0.8204
aF0.806
aF0.8322
aF0.8237
aF0.8096
aF0.8297
aF0.8278
aF0.8296
aF0.8338
aF0.8339
aF0.8318
aF0.8278
aF0.8237
aF0.8332
aF0.8241
aF0.8388
aF0.8373
aF0.8339
aF0.8427
aF0.8371
aF0.8484
aF0.8324
aF0.8338
aF0.8333
aF0.8388
aF0.8392
aF0.8483
aF0.8428
aF0.8393
aF0.8445
aF0.8451
aF0.847
aF0.8449
aF0.8497
aF0.836
aF0.8421
aF0.8496
aF0.8425
aF0.8459
aF0.8452
aF0.8521
aF0.8468
aF0.8485
aF0.8496
aF0.8465
aF0.8532
aF0.8418
aF0.8425
aF0.8518
aa(lp12
F0.4169
aF0.6062
aF0.6949
aF0.6438
aF0.7173
aF0.7005
aF0.7351
aF0.7635
aF0.7572
aF0.7613
aF0.8026
aF0.7703
aF0.8006
aF0.8008
aF0.8002
aF0.8115
aF0.8028
aF0.8091
aF0.8035
aF0.8155
aF0.828
aF0.8147
aF0.8229
aF0.8171
aF0.8219
aF0.834
aF0.8287
aF0.8349
aF0.8229
aF0.8366
aF0.832
aF0.8336
aF0.835
aF0.8421
aF0.8369
aF0.8433
aF0.839
aF0.8443
aF0.8342
aF0.8331
aF0.8425
aF0.8372
aF0.837
aF0.8389
aF0.8437
aF0.8504
aF0.842
aF0.8414
aF0.8554
aF0.852
aF0.8423
aF0.8425
aF0.8412
aF0.8577
aF0.8562
aF0.8549
aF0.8515
aF0.8493
aF0.8475
aF0.8463
aF0.8545
aF0.8526
aF0.8591
aF0.8537
aF0.8559
aF0.8573
aF0.8513
aF0.8451
aF0.8565
aF0.8597
aF0.8583
aF0.854
aF0.8632
aF0.8656
aF0.8601
aF0.8588
aF0.8566
aF0.8604
aF0.8608
aa(lp13
F0.544
aF0.625
aF0.6364
aF0.7212
aF0.7202
aF0.7433
aF0.7774
aF0.7633
aF0.7865
aF0.792
aF0.793
aF0.8154
aF0.8067
aF0.7899
aF0.7902
aF0.8112
aF0.8224
aF0.8111
aF0.8274
aF0.8224
aF0.8223
aF0.8123
aF0.8373
aF0.8253
aF0.8346
aF0.8375
aF0.8288
aF0.8284
aF0.8405
aF0.8381
aF0.8415
aF0.8501
aF0.8443
aF0.841
aF0.8394
aF0.8474
aF0.8306
aF0.8435
aF0.8447
aF0.8435
aF0.8458
aF0.8459
aF0.8531
aF0.8539
aF0.853
aF0.8488
aF0.8562
aF0.8571
aF0.8515
aF0.8528
aF0.8572
aF0.8564
aF0.8559
aF0.8519
aF0.8577
aF0.8526
aF0.86
aF0.852
aF0.8528
aF0.858
aF0.8609
aF0.8589
aF0.859
aF0.8624
aF0.8494
aF0.8627
aF0.8584
aF0.8597
aF0.857
aF0.8644
aF0.8607
aF0.8699
aF0.8568
aF0.8622
aF0.8582
aF0.8613
aF0.8676
aF0.8575
aF0.8674
aa(lp14
F0.5704
aF0.635
aF0.6171
aF0.7182
aF0.7469
aF0.7359
aF0.775
aF0.7871
aF0.7719
aF0.7805
aF0.8049
aF0.8075
aF0.8076
aF0.8152
aF0.8105
aF0.818
aF0.8172
aF0.8281
aF0.832
aF0.8291
aF0.8378
aF0.8314
aF0.8365
aF0.8446
aF0.8307
aF0.8328
aF0.8391
aF0.8381
aF0.8543
aF0.8309
aF0.8455
aF0.8507
aF0.8444
aF0.8415
aF0.843
aF0.8543
aF0.8562
aF0.8589
aF0.847
aF0.846
aF0.855
aF0.8553
aF0.8531
aF0.8535
aF0.8567
aF0.8545
aF0.8466
aF0.8584
aF0.8548
aF0.861
aF0.8558
aF0.8587
aF0.8628
aF0.8631
aF0.8544
aF0.8659
aF0.8583
aF0.858
aF0.854
aF0.8674
aF0.8593
aF0.8641
aF0.8623
aF0.8543
aF0.8574
aF0.8583
aF0.8624
aF0.8587
aF0.8589
aF0.8557
aF0.8685
aF0.8576
aF0.8631
aF0.8656
aF0.8621
aF0.8649
aF0.8703
aF0.8629
aF0.8681
aa(lp15
F0.5841
aF0.6323
aF0.6792
aF0.7307
aF0.7567
aF0.7624
aF0.7789
aF0.7791
aF0.7865
aF0.8064
aF0.8132
aF0.8182
aF0.8081
aF0.8122
aF0.8214
aF0.8228
aF0.8226
aF0.8201
aF0.8202
aF0.8316
aF0.8257
aF0.8326
aF0.8407
aF0.8408
aF0.8381
aF0.8409
aF0.8365
aF0.8364
aF0.8427
aF0.8447
aF0.8456
aF0.8437
aF0.8503
aF0.8435
aF0.8477
aF0.8477
aF0.8472
aF0.8397
aF0.8518
aF0.8478
aF0.8516
aF0.8503
aF0.8529
aF0.8493
aF0.8581
aF0.8504
aF0.8661
aF0.8526
aF0.8552
aF0.8532
aF0.8581
aF0.8578
aF0.8575
aF0.8522
aF0.8572
aF0.8547
aF0.8565
aF0.8615
aF0.8599
aF0.8691
aF0.8624
aF0.8607
aF0.8639
aF0.8591
aF0.8555
aF0.867
aF0.8586
aF0.859
aF0.8613
aF0.8673
aF0.8673
aF0.8602
aF0.8629
aF0.8658
aF0.8641
aF0.86
aF0.8699
aF0.8692
aF0.8671
aa(lp16
F0.5162
aF0.641
aF0.7088
aF0.7235
aF0.7567
aF0.7578
aF0.7893
aF0.7795
aF0.7961
aF0.8066
aF0.8165
aF0.8042
aF0.8279
aF0.8132
aF0.8258
aF0.839
aF0.8243
aF0.8297
aF0.8286
aF0.8365
aF0.8375
aF0.8281
aF0.8317
aF0.838
aF0.8394
aF0.8429
aF0.8402
aF0.8415
aF0.842
aF0.8452
aF0.8381
aF0.8436
aF0.8481
aF0.8484
aF0.8475
aF0.8598
aF0.8473
aF0.852
aF0.8494
aF0.8587
aF0.8538
aF0.8577
aF0.8551
aF0.858
aF0.8493
aF0.8534
aF0.8596
aF0.8582
aF0.8593
aF0.8538
aF0.8606
aF0.8589
aF0.8614
aF0.859
aF0.8609
aF0.8565
aF0.859
aF0.8575
aF0.8615
aF0.8629
aF0.8669
aF0.8648
aF0.866
aF0.8589
aF0.8537
aF0.8555
aF0.8603
aF0.8592
aF0.8608
aF0.87
aF0.8664
aF0.8635
aF0.86
aF0.8588
aF0.8618
aF0.8677
aF0.8743
aF0.8591
aF0.8669
aa(lp17
F0.6298
aF0.6534
aF0.6987
aF0.764
aF0.7582
aF0.765
aF0.7848
aF0.784
aF0.7999
aF0.8076
aF0.8016
aF0.8093
aF0.8194
aF0.8155
aF0.8219
aF0.8297
aF0.8303
aF0.8362
aF0.836
aF0.8356
aF0.8391
aF0.8255
aF0.8395
aF0.8399
aF0.832
aF0.8328
aF0.8427
aF0.8457
aF0.84
aF0.8481
aF0.854
aF0.8421
aF0.8445
aF0.8477
aF0.8483
aF0.8515
aF0.8499
aF0.8514
aF0.8488
aF0.856
aF0.8519
aF0.8534
aF0.855
aF0.8539
aF0.8516
aF0.8597
aF0.8562
aF0.8597
aF0.8614
aF0.8511
aF0.8539
aF0.8592
aF0.8536
aF0.8653
aF0.8594
aF0.8577
aF0.8598
aF0.8569
aF0.8594
aF0.8566
aF0.862
aF0.8533
aF0.8634
aF0.862
aF0.8602
aF0.8644
aF0.8661
aF0.8638
aF0.8575
aF0.8665
aF0.8652
aF0.8695
aF0.8676
aF0.8597
aF0.8651
aF0.8625
aF0.8633
aF0.8641
aF0.8663
aa(lp18
F0.6631
aF0.6525
aF0.7284
aF0.7506
aF0.7656
aF0.7825
aF0.7806
aF0.7899
aF0.7992
aF0.8088
aF0.8031
aF0.8051
aF0.8186
aF0.815
aF0.8309
aF0.8233
aF0.8228
aF0.8264
aF0.8307
aF0.8268
aF0.8344
aF0.8391
aF0.8384
aF0.8354
aF0.8435
aF0.8334
aF0.8399
aF0.8414
aF0.8453
aF0.8467
aF0.8456
aF0.8439
aF0.8521
aF0.8494
aF0.851
aF0.8516
aF0.8459
aF0.8407
aF0.8471
aF0.851
aF0.8494
aF0.8506
aF0.8486
aF0.8549
aF0.8491
aF0.8528
aF0.8568
aF0.8517
aF0.8551
aF0.8569
aF0.8543
aF0.8571
aF0.852
aF0.8553
aF0.8602
aF0.8548
aF0.8607
aF0.8568
aF0.8535
aF0.8653
aF0.8602
aF0.8574
aF0.8609
aF0.8585
aF0.8559
aF0.8604
aF0.8612
aF0.8613
aF0.8633
aF0.8592
aF0.8599
aF0.8635
aF0.8599
aF0.868
aF0.8632
aF0.8585
aF0.8667
aF0.8634
aF0.8671
aa(lp19
F0.5853
aF0.7043
aF0.7458
aF0.7554
aF0.7541
aF0.7772
aF0.784
aF0.7886
aF0.8074
aF0.8079
aF0.8104
aF0.8056
aF0.824
aF0.8095
aF0.8263
aF0.821
aF0.8227
aF0.8251
aF0.8363
aF0.824
aF0.8273
aF0.8359
aF0.8337
aF0.8386
aF0.843
aF0.8409
aF0.8383
aF0.8452
aF0.8417
aF0.8378
aF0.855
aF0.8488
aF0.8449
aF0.8445
aF0.8497
aF0.8433
aF0.8505
aF0.8519
aF0.8488
aF0.8515
aF0.8577
aF0.8428
aF0.8527
aF0.8576
aF0.8483
aF0.8527
aF0.8524
aF0.8628
aF0.8587
aF0.8512
aF0.852
aF0.8478
aF0.8608
aF0.8563
aF0.8605
aF0.86
aF0.8544
aF0.8526
aF0.8682
aF0.8622
aF0.8582
aF0.86
aF0.8557
aF0.8651
aF0.8603
aF0.8649
aF0.8613
aF0.8658
aF0.8598
aF0.8605
aF0.8594
aF0.8605
aF0.855
aF0.8594
aF0.8611
aF0.8631
aF0.864
aF0.855
aF0.863
aa(lp20
F0.6627
aF0.6832
aF0.7386
aF0.7585
aF0.7764
aF0.7785
aF0.787
aF0.794
aF0.8007
aF0.8022
aF0.7996
aF0.8162
aF0.8151
aF0.8205
aF0.8207
aF0.8275
aF0.8262
aF0.8338
aF0.8365
aF0.8364
aF0.8357
aF0.8305
aF0.8392
aF0.8364
aF0.8451
aF0.8394
aF0.8465
aF0.8433
aF0.8516
aF0.8502
aF0.8451
aF0.8482
aF0.8495
aF0.8456
aF0.8461
aF0.8439
aF0.8558
aF0.8511
aF0.8508
aF0.8507
aF0.8447
aF0.8481
aF0.8447
aF0.8569
aF0.8475
aF0.8541
aF0.8456
aF0.846
aF0.8596
aF0.8633
aF0.8514
aF0.8542
aF0.8576
aF0.8508
aF0.8618
aF0.8598
aF0.8541
aF0.8629
aF0.8616
aF0.8656
aF0.8629
aF0.8569
aF0.8631
aF0.8569
aF0.8597
aF0.8637
aF0.8613
aF0.8602
aF0.8581
aF0.8672
aF0.8595
aF0.8562
aF0.8527
aF0.8586
aF0.8627
aF0.8634
aF0.8643
aF0.869
aF0.8664
aa(lp21
F0.6676
aF0.6743
aF0.7236
aF0.7744
aF0.772
aF0.7767
aF0.7766
aF0.7942
aF0.793
aF0.8102
aF0.8069
aF0.8099
aF0.8121
aF0.8126
aF0.8197
aF0.8275
aF0.8311
aF0.8304
aF0.8297
aF0.8354
aF0.8264
aF0.8408
aF0.8414
aF0.843
aF0.8368
aF0.8409
aF0.8408
aF0.8379
aF0.839
aF0.8493
aF0.8397
aF0.8456
aF0.8466
aF0.8408
aF0.8546
aF0.8519
aF0.8432
aF0.85
aF0.8537
aF0.8386
aF0.8503
aF0.85
aF0.8538
aF0.8521
aF0.8582
aF0.8494
aF0.8538
aF0.8582
aF0.8544
aF0.8548
aF0.8571
aF0.8551
aF0.8586
aF0.861
aF0.8588
aF0.8614
aF0.8573
aF0.8576
aF0.8669
aF0.8586
aF0.8704
aF0.8657
aF0.8663
aF0.8639
aF0.8666
aF0.86
aF0.8659
aF0.862
aF0.8659
aF0.8582
aF0.8645
aF0.8613
aF0.8671
aF0.8566
aF0.8649
aF0.858
aF0.8626
aF0.8604
aF0.8633
aa(lp22
F0.7098
aF0.7041
aF0.7406
aF0.7483
aF0.754
aF0.7764
aF0.7692
aF0.8015
aF0.8004
aF0.8022
aF0.8165
aF0.8027
aF0.8193
aF0.8224
aF0.8369
aF0.8232
aF0.8193
aF0.8219
aF0.8328
aF0.8285
aF0.8295
aF0.8395
aF0.8325
aF0.8343
aF0.8443
aF0.8397
aF0.8412
aF0.8513
aF0.8476
aF0.844
aF0.8452
aF0.8499
aF0.8377
aF0.8522
aF0.8467
aF0.8407
aF0.8474
aF0.8482
aF0.8544
aF0.8532
aF0.859
aF0.85
aF0.8551
aF0.8518
aF0.8579
aF0.8523
aF0.8504
aF0.8468
aF0.8593
aF0.8561
aF0.8524
aF0.8523
aF0.8555
aF0.8533
aF0.8625
aF0.8584
aF0.8651
aF0.8557
aF0.8543
aF0.8505
aF0.8538
aF0.8601
aF0.854
aF0.8614
aF0.8536
aF0.8605
aF0.8635
aF0.8672
aF0.8597
aF0.8639
aF0.8617
aF0.8627
aF0.8684
aF0.8654
aF0.8622
aF0.8601
aF0.8665
aF0.8637
aF0.8587
aa(lp23
F0.6252
aF0.7228
aF0.7485
aF0.7529
aF0.769
aF0.7783
aF0.7962
aF0.7945
aF0.7944
aF0.8024
aF0.8059
aF0.8279
aF0.8202
aF0.815
aF0.8266
aF0.8296
aF0.8266
aF0.8311
aF0.8345
aF0.8262
aF0.8254
aF0.8386
aF0.8283
aF0.8372
aF0.8395
aF0.8372
aF0.8414
aF0.8405
aF0.8404
aF0.8417
aF0.8389
aF0.8514
aF0.8468
aF0.839
aF0.8434
aF0.8457
aF0.8456
aF0.8441
aF0.8488
aF0.8533
aF0.8483
aF0.8541
aF0.8521
aF0.8461
aF0.8474
aF0.8583
aF0.8523
aF0.8525
aF0.8598
aF0.855
aF0.8678
aF0.8573
aF0.8572
aF0.8551
aF0.8643
aF0.8582
aF0.8553
aF0.8604
aF0.8655
aF0.8599
aF0.8627
aF0.8616
aF0.857
aF0.862
aF0.8633
aF0.8607
aF0.8574
aF0.8617
aF0.8571
aF0.8637
aF0.8645
aF0.8685
aF0.8572
aF0.8633
aF0.8672
aF0.8656
aF0.8643
aF0.8593
aF0.8593
aa(lp24
F0.6358
aF0.7364
aF0.7551
aF0.7706
aF0.7711
aF0.7845
aF0.7897
aF0.7849
aF0.8079
aF0.8033
aF0.8037
aF0.8082
aF0.8164
aF0.8237
aF0.8262
aF0.8216
aF0.8289
aF0.8311
aF0.8278
aF0.8265
aF0.8327
aF0.8328
aF0.8324
aF0.8368
aF0.8334
aF0.8406
aF0.8378
aF0.8404
aF0.8423
aF0.8437
aF0.8518
aF0.8346
aF0.852
aF0.8464
aF0.856
aF0.8465
aF0.8472
aF0.8503
aF0.85
aF0.8497
aF0.8451
aF0.8594
aF0.8527
aF0.8515
aF0.8466
aF0.8565
aF0.8577
aF0.8479
aF0.8563
aF0.8569
aF0.8557
aF0.851
aF0.8582
aF0.8591
aF0.8592
aF0.859
aF0.8614
aF0.8564
aF0.8617
aF0.8626
aF0.8579
aF0.8564
aF0.8578
aF0.8622
aF0.8619
aF0.8651
aF0.8597
aF0.8584
aF0.8595
aF0.8644
aF0.8673
aF0.8642
aF0.8622
aF0.8661
aF0.8687
aF0.8572
aF0.8609
aF0.8627
aF0.8681
aa(lp25
F0.6841
aF0.718
aF0.7451
aF0.7699
aF0.7673
aF0.7844
aF0.7846
aF0.7917
aF0.7904
aF0.7975
aF0.8098
aF0.8126
aF0.8098
aF0.823
aF0.8143
aF0.8232
aF0.8217
aF0.8204
aF0.8289
aF0.8325
aF0.8259
aF0.8299
aF0.83
aF0.8382
aF0.8345
aF0.8419
aF0.8392
aF0.8414
aF0.8508
aF0.8478
aF0.8434
aF0.8462
aF0.8513
aF0.8394
aF0.8495
aF0.8498
aF0.8589
aF0.8473
aF0.8505
aF0.8514
aF0.8499
aF0.8558
aF0.847
aF0.8555
aF0.8482
aF0.8538
aF0.8529
aF0.8547
aF0.8528
aF0.854
aF0.8531
aF0.8568
aF0.8607
aF0.8544
aF0.8578
aF0.8568
aF0.8554
aF0.8483
aF0.855
aF0.855
aF0.8536
aF0.857
aF0.8561
aF0.8515
aF0.8623
aF0.858
aF0.8625
aF0.8622
aF0.8574
aF0.8579
aF0.8601
aF0.8606
aF0.8646
aF0.8683
aF0.8599
aF0.8671
aF0.8547
aF0.8626
aF0.8595
aa(lp26
F0.6906
aF0.7124
aF0.7549
aF0.7543
aF0.7727
aF0.7898
aF0.7904
aF0.7912
aF0.798
aF0.7939
aF0.8055
aF0.8033
aF0.8071
aF0.8194
aF0.8221
aF0.8228
aF0.8297
aF0.8328
aF0.8188
aF0.8395
aF0.8367
aF0.8389
aF0.836
aF0.8293
aF0.8379
aF0.8385
aF0.8368
aF0.8375
aF0.8438
aF0.8417
aF0.8472
aF0.843
aF0.8436
aF0.8442
aF0.8462
aF0.8468
aF0.858
aF0.8494
aF0.848
aF0.8494
aF0.8553
aF0.8507
aF0.8489
aF0.8551
aF0.8544
aF0.852
aF0.8611
aF0.8466
aF0.8589
aF0.855
aF0.8562
aF0.8545
aF0.8602
aF0.8538
aF0.8614
aF0.861
aF0.8574
aF0.861
aF0.8603
aF0.857
aF0.8565
aF0.8639
aF0.8627
aF0.8578
aF0.8608
aF0.8554
aF0.8577
aF0.8581
aF0.8601
aF0.8572
aF0.8679
aF0.8655
aF0.8614
aF0.8556
aF0.861
aF0.8577
aF0.8631
aF0.8629
aF0.8689
aa(lp27
F0.712
aF0.7223
aF0.7368
aF0.7461
aF0.7622
aF0.7736
aF0.7814
aF0.7992
aF0.7873
aF0.8038
aF0.7957
aF0.8107
aF0.8169
aF0.8195
aF0.8289
aF0.8228
aF0.8258
aF0.8301
aF0.8302
aF0.8316
aF0.8225
aF0.8371
aF0.8401
aF0.8411
aF0.832
aF0.8394
aF0.8455
aF0.8366
aF0.8426
aF0.843
aF0.8393
aF0.8468
aF0.8483
aF0.841
aF0.8434
aF0.8512
aF0.8456
aF0.8482
aF0.8503
aF0.8494
aF0.8478
aF0.8503
aF0.8478
aF0.8446
aF0.8493
aF0.8481
aF0.8564
aF0.8531
aF0.8571
aF0.8544
aF0.8533
aF0.8543
aF0.8475
aF0.8612
aF0.8563
aF0.8586
aF0.8574
aF0.8553
aF0.8596
aF0.8543
aF0.8504
aF0.8655
aF0.8609
aF0.8584
aF0.8639
aF0.8627
aF0.8577
aF0.8588
aF0.8708
aF0.8558
aF0.8687
aF0.8564
aF0.8588
aF0.8655
aF0.8567
aF0.8629
aF0.8644
aF0.8608
aF0.8646
aa(lp28
F0.7058
aF0.7201
aF0.7602
aF0.772
aF0.7602
aF0.7833
aF0.7891
aF0.7896
aF0.8013
aF0.8025
aF0.8112
aF0.8137
aF0.8222
aF0.8225
aF0.8265
aF0.8268
aF0.8238
aF0.8176
aF0.83
aF0.8289
aF0.8308
aF0.8304
aF0.8385
aF0.84
aF0.8317
aF0.8371
aF0.8409
aF0.8422
aF0.8454
aF0.8407
aF0.8464
aF0.8474
aF0.8414
aF0.8509
aF0.8432
aF0.8466
aF0.8501
aF0.8558
aF0.8491
aF0.8535
aF0.8527
aF0.8539
aF0.8502
aF0.8484
aF0.8521
aF0.8493
aF0.8501
aF0.8581
aF0.8522
aF0.8572
aF0.8607
aF0.859
aF0.8625
aF0.8587
aF0.8548
aF0.8496
aF0.8573
aF0.8596
aF0.8582
aF0.8582
aF0.8565
aF0.8646
aF0.8586
aF0.8664
aF0.8566
aF0.8549
aF0.8593
aF0.8622
aF0.8578
aF0.8587
aF0.8609
aF0.8558
aF0.8584
aF0.8645
aF0.8591
aF0.8623
aF0.862
aF0.8666
aF0.8634
aa(lp29
F0.7115
aF0.7235
aF0.7446
aF0.7623
aF0.7671
aF0.7835
aF0.7859
aF0.7814
aF0.7856
aF0.7987
aF0.8184
aF0.8106
aF0.8074
aF0.8174
aF0.8262
aF0.8262
aF0.8242
aF0.8219
aF0.8318
aF0.8301
aF0.8327
aF0.8292
aF0.8381
aF0.844
aF0.8356
aF0.84
aF0.8384
aF0.8422
aF0.8409
aF0.845
aF0.842
aF0.8426
aF0.8487
aF0.849
aF0.8481
aF0.846
aF0.8434
aF0.8515
aF0.848
aF0.8486
aF0.8528
aF0.8506
aF0.8538
aF0.8453
aF0.8517
aF0.8516
aF0.8542
aF0.8512
aF0.8541
aF0.8618
aF0.8524
aF0.8545
aF0.8638
aF0.8579
aF0.8589
aF0.8607
aF0.8558
aF0.8609
aF0.8578
aF0.8578
aF0.8585
aF0.8535
aF0.8631
aF0.8516
aF0.8512
aF0.8596
aF0.8598
aF0.8635
aF0.8621
aF0.8644
aF0.8641
aF0.8629
aF0.8689
aF0.86
aF0.857
aF0.8593
aF0.8599
aF0.8628
aF0.8572
aa(lp30
F0.6985
aF0.7338
aF0.7479
aF0.7632
aF0.7618
aF0.7717
aF0.7936
aF0.7937
aF0.7927
aF0.8102
aF0.8012
aF0.8186
aF0.8062
aF0.8176
aF0.8177
aF0.8223
aF0.8216
aF0.8237
aF0.8274
aF0.8299
aF0.8359
aF0.8357
aF0.8336
aF0.8372
aF0.8353
aF0.8318
aF0.8408
aF0.8463
aF0.8344
aF0.8385
aF0.8497
aF0.843
aF0.8444
aF0.8471
aF0.8491
aF0.8548
aF0.8474
aF0.8487
aF0.8535
aF0.8555
aF0.8513
aF0.8501
aF0.8485
aF0.8578
aF0.851
aF0.8542
aF0.8501
aF0.8536
aF0.8541
aF0.8542
aF0.8539
aF0.853
aF0.8516
aF0.8558
aF0.8581
aF0.856
aF0.855
aF0.8583
aF0.8605
aF0.8527
aF0.8644
aF0.8598
aF0.8533
aF0.8536
aF0.8564
aF0.8458
aF0.8627
aF0.8593
aF0.86
aF0.8567
aF0.8625
aF0.8565
aF0.8518
aF0.8576
aF0.8646
aF0.8569
aF0.8548
aF0.8617
aF0.8576
aa(lp31
F0.7074
aF0.7312
aF0.7488
aF0.7659
aF0.7702
aF0.7929
aF0.7874
aF0.7906
aF0.7966
aF0.7976
aF0.8154
aF0.8056
aF0.8142
aF0.8166
aF0.8237
aF0.8192
aF0.8224
aF0.8268
aF0.8226
aF0.8329
aF0.8349
aF0.8343
aF0.8387
aF0.8361
aF0.8364
aF0.8335
aF0.8436
aF0.846
aF0.842
aF0.8341
aF0.8459
aF0.8429
aF0.8409
aF0.8494
aF0.8473
aF0.8486
aF0.8503
aF0.8519
aF0.8546
aF0.8451
aF0.8521
aF0.8534
aF0.8607
aF0.8541
aF0.855
aF0.855
aF0.8556
aF0.8583
aF0.8515
aF0.8602
aF0.8522
aF0.8579
aF0.8574
aF0.8559
aF0.8628
aF0.8539
aF0.8568
aF0.8562
aF0.8628
aF0.8627
aF0.8553
aF0.8572
aF0.8558
aF0.8627
aF0.8615
aF0.8609
aF0.8635
aF0.8562
aF0.8646
aF0.8635
aF0.8584
aF0.8537
aF0.8599
aF0.8595
aF0.8635
aF0.8603
aF0.8622
aF0.86
aF0.8627
aa(lp32
F0.6841
aF0.7286
aF0.7464
aF0.7664
aF0.773
aF0.7817
aF0.7901
aF0.7883
aF0.8029
aF0.8081
aF0.8143
aF0.8161
aF0.8206
aF0.8127
aF0.8197
aF0.8269
aF0.8219
aF0.8238
aF0.8332
aF0.8261
aF0.8352
aF0.8313
aF0.838
aF0.8369
aF0.8335
aF0.8345
aF0.8374
aF0.8378
aF0.8431
aF0.846
aF0.8412
aF0.8454
aF0.841
aF0.846
aF0.8396
aF0.8453
aF0.8496
aF0.8471
aF0.846
aF0.8488
aF0.8512
aF0.8568
aF0.8482
aF0.8557
aF0.8482
aF0.8534
aF0.8601
aF0.8551
aF0.8551
aF0.854
aF0.855
aF0.8541
aF0.8552
aF0.8539
aF0.8576
aF0.8543
aF0.8584
aF0.8586
aF0.8565
aF0.8507
aF0.8561
aF0.853
aF0.8605
aF0.858
aF0.8573
aF0.8541
aF0.8679
aF0.8589
aF0.8618
aF0.8484
aF0.8607
aF0.8621
aF0.8583
aF0.8631
aF0.8647
aF0.8578
aF0.8656
aF0.8674
aF0.8619
aa(lp33
F0.7345
aF0.7193
aF0.7531
aF0.7672
aF0.7727
aF0.7785
aF0.7937
aF0.7984
aF0.799
aF0.8007
aF0.8243
aF0.8173
aF0.8236
aF0.8146
aF0.8158
aF0.8259
aF0.8314
aF0.8258
aF0.8308
aF0.8262
aF0.8334
aF0.8264
aF0.8255
aF0.8371
aF0.837
aF0.841
aF0.8469
aF0.8488
aF0.8397
aF0.848
aF0.8478
aF0.8404
aF0.8418
aF0.8398
aF0.8474
aF0.8489
aF0.8507
aF0.8519
aF0.8536
aF0.8567
aF0.8504
aF0.8487
aF0.8407
aF0.8528
aF0.8523
aF0.8552
aF0.856
aF0.855
aF0.8461
aF0.8521
aF0.8517
aF0.8541
aF0.8663
aF0.8583
aF0.8555
aF0.8607
aF0.8549
aF0.8517
aF0.8562
aF0.8577
aF0.861
aF0.8575
aF0.8589
aF0.8695
aF0.8637
aF0.8637
aF0.8584
aF0.8634
aF0.86
aF0.863
aF0.8603
aF0.8576
aF0.8635
aF0.8611
aF0.8597
aF0.8654
aF0.8615
aF0.8667
aF0.8612
aa(lp34
F0.7146
aF0.7188
aF0.7515
aF0.7481
aF0.7761
aF0.7784
aF0.7864
aF0.7911
aF0.8047
aF0.797
aF0.8157
aF0.8148
aF0.8176
aF0.8099
aF0.8253
aF0.8232
aF0.8298
aF0.8363
aF0.829
aF0.832
aF0.8331
aF0.8286
aF0.8304
aF0.8392
aF0.8382
aF0.835
aF0.8348
aF0.8398
aF0.8309
aF0.84
aF0.839
aF0.8438
aF0.8544
aF0.8444
aF0.8468
aF0.8467
aF0.8464
aF0.8469
aF0.8436
aF0.8555
aF0.851
aF0.8443
aF0.851
aF0.8548
aF0.8493
aF0.8583
aF0.8571
aF0.8549
aF0.8551
aF0.8509
aF0.8514
aF0.8552
aF0.8613
aF0.8552
aF0.8511
aF0.8478
aF0.8514
aF0.8555
aF0.8547
aF0.8591
aF0.8585
aF0.8651
aF0.8619
aF0.8538
aF0.863
aF0.861
aF0.8605
aF0.8622
aF0.8581
aF0.8657
aF0.8567
aF0.862
aF0.8673
aF0.8588
aF0.8601
aF0.8613
aF0.8615
aF0.8666
aF0.8634
aa(lp35
F0.708
aF0.7353
aF0.7418
aF0.761
aF0.7615
aF0.7826
aF0.7776
aF0.7998
aF0.8028
aF0.7971
aF0.8161
aF0.813
aF0.8139
aF0.8091
aF0.8203
aF0.8262
aF0.8324
aF0.8263
aF0.8411
aF0.8227
aF0.8322
aF0.8245
aF0.8329
aF0.8384
aF0.841
aF0.8352
aF0.8367
aF0.8449
aF0.8481
aF0.8432
aF0.8461
aF0.8419
aF0.8456
aF0.8435
aF0.8467
aF0.8518
aF0.8493
aF0.846
aF0.8454
aF0.8547
aF0.8397
aF0.852
aF0.8526
aF0.8434
aF0.8567
aF0.8524
aF0.8561
aF0.8616
aF0.8545
aF0.858
aF0.8604
aF0.8595
aF0.8492
aF0.8627
aF0.8522
aF0.8544
aF0.8547
aF0.8569
aF0.848
aF0.8613
aF0.8639
aF0.8536
aF0.8614
aF0.8514
aF0.8541
aF0.8618
aF0.8583
aF0.8589
aF0.8633
aF0.8649
aF0.8601
aF0.8634
aF0.8585
aF0.8581
aF0.8663
aF0.8551
aF0.8579
aF0.8631
aF0.8606
aa(lp36
F0.7226
aF0.7369
aF0.741
aF0.7606
aF0.7621
aF0.7865
aF0.795
aF0.799
aF0.7943
aF0.8024
aF0.8086
aF0.8126
aF0.8105
aF0.8241
aF0.8263
aF0.8212
aF0.8313
aF0.8211
aF0.8322
aF0.8288
aF0.8357
aF0.842
aF0.8393
aF0.8388
aF0.8406
aF0.8432
aF0.8292
aF0.8437
aF0.834
aF0.8429
aF0.8407
aF0.8468
aF0.8438
aF0.8473
aF0.8386
aF0.8494
aF0.8441
aF0.8464
aF0.8494
aF0.8518
aF0.8402
aF0.8584
aF0.8575
aF0.8561
aF0.8495
aF0.8508
aF0.8664
aF0.8498
aF0.8474
aF0.8468
aF0.8591
aF0.8596
aF0.8686
aF0.8586
aF0.8576
aF0.8555
aF0.8597
aF0.86
aF0.8554
aF0.8585
aF0.8587
aF0.8582
aF0.8599
aF0.8537
aF0.8606
aF0.8618
aF0.8575
aF0.8587
aF0.856
aF0.8591
aF0.8649
aF0.854
aF0.8626
aF0.8616
aF0.8633
aF0.8575
aF0.8596
aF0.8599
aF0.8567
aa(lp37
F0.7107
aF0.7254
aF0.7551
aF0.7613
aF0.765
aF0.7784
aF0.786
aF0.7972
aF0.8014
aF0.8014
aF0.7996
aF0.8061
aF0.8085
aF0.8099
aF0.8234
aF0.8251
aF0.832
aF0.8266
aF0.8321
aF0.8288
aF0.8306
aF0.8314
aF0.8403
aF0.8376
aF0.8374
aF0.834
aF0.8393
aF0.8367
aF0.8455
aF0.8428
aF0.8318
aF0.8403
aF0.8481
aF0.8476
aF0.8424
aF0.8531
aF0.852
aF0.8468
aF0.8584
aF0.8576
aF0.8433
aF0.8491
aF0.8452
aF0.851
aF0.8514
aF0.8502
aF0.8494
aF0.8506
aF0.8495
aF0.8504
aF0.8501
aF0.8541
aF0.8577
aF0.8512
aF0.8535
aF0.8565
aF0.8628
aF0.8589
aF0.8593
aF0.8521
aF0.865
aF0.8514
aF0.8547
aF0.8586
aF0.8602
aF0.8615
aF0.8617
aF0.8586
aF0.856
aF0.8594
aF0.8576
aF0.8617
aF0.8592
aF0.8549
aF0.8603
aF0.8637
aF0.8641
aF0.8647
aF0.8585
aa(lp38
F0.7188
aF0.7421
aF0.7415
aF0.7666
aF0.778
aF0.7905
aF0.7846
aF0.7849
aF0.8041
aF0.8061
aF0.8003
aF0.819
aF0.8028
aF0.8141
aF0.8198
aF0.8306
aF0.8193
aF0.823
aF0.823
aF0.8343
aF0.8366
aF0.8278
aF0.8353
aF0.837
aF0.8409
aF0.8411
aF0.8383
aF0.8371
aF0.8377
aF0.8353
aF0.8393
aF0.847
aF0.846
aF0.8542
aF0.8474
aF0.8452
aF0.8453
aF0.8407
aF0.8489
aF0.8542
aF0.8447
aF0.8496
aF0.86
aF0.8535
aF0.8546
aF0.8463
aF0.856
aF0.8538
aF0.8532
aF0.8574
aF0.8648
aF0.8566
aF0.8584
aF0.8591
aF0.8603
aF0.8523
aF0.8552
aF0.8553
aF0.8636
aF0.8568
aF0.8575
aF0.8598
aF0.8544
aF0.8598
aF0.8609
aF0.8572
aF0.8546
aF0.8644
aF0.8655
aF0.8613
aF0.86
aF0.8648
aF0.8659
aF0.8637
aF0.8587
aF0.8685
aF0.8706
aF0.8635
aF0.8593
aa(lp39
F0.7191
aF0.7297
aF0.742
aF0.7667
aF0.7697
aF0.7757
aF0.789
aF0.7894
aF0.7995
aF0.8098
aF0.8078
aF0.8174
aF0.8042
aF0.8169
aF0.8211
aF0.817
aF0.8265
aF0.8269
aF0.8306
aF0.8318
aF0.8262
aF0.8383
aF0.8368
aF0.8352
aF0.8272
aF0.8439
aF0.8344
aF0.8362
aF0.8361
aF0.842
aF0.8384
aF0.8436
aF0.8371
aF0.8398
aF0.8526
aF0.8521
aF0.8519
aF0.8452
aF0.8566
aF0.8471
aF0.8503
aF0.8481
aF0.8523
aF0.8421
aF0.8519
aF0.8479
aF0.8511
aF0.855
aF0.8589
aF0.8491
aF0.844
aF0.8627
aF0.853
aF0.8545
aF0.8532
aF0.8565
aF0.8571
aF0.8602
aF0.8583
aF0.8573
aF0.8612
aF0.8628
aF0.8628
aF0.8621
aF0.8611
aF0.8567
aF0.8601
aF0.8661
aF0.8597
aF0.8545
aF0.8532
aF0.8584
aF0.8594
aF0.8715
aF0.8627
aF0.8576
aF0.8604
aF0.8636
aF0.8698
aa(lp40
F0.7036
aF0.7392
aF0.749
aF0.7509
aF0.7753
aF0.7798
aF0.7821
aF0.8
aF0.7957
aF0.802
aF0.809
aF0.8095
aF0.8263
aF0.8203
aF0.821
aF0.8204
aF0.8269
aF0.8251
aF0.8273
aF0.8203
aF0.8379
aF0.8357
aF0.8305
aF0.8347
aF0.8339
aF0.8371
aF0.8367
aF0.8443
aF0.8422
aF0.8375
aF0.8478
aF0.8413
aF0.8438
aF0.8456
aF0.8501
aF0.8462
aF0.8471
aF0.8511
aF0.8601
aF0.8529
aF0.8542
aF0.8511
aF0.8556
aF0.8472
aF0.8532
aF0.8553
aF0.8516
aF0.8512
aF0.858
aF0.8556
aF0.8577
aF0.852
aF0.8561
aF0.8668
aF0.8563
aF0.8485
aF0.8645
aF0.8586
aF0.8567
aF0.8536
aF0.8559
aF0.8575
aF0.8603
aF0.8655
aF0.8593
aF0.8604
aF0.8692
aF0.8643
aF0.8621
aF0.8605
aF0.8639
aF0.8606
aF0.8591
aF0.8531
aF0.866
aF0.8659
aF0.8645
aF0.8678
aF0.858
aa.