(lp0
(lp1
F0.5354
aF0.601
aF0.6865
aF0.6977
aF0.7405
aF0.7663
aF0.7639
aF0.7936
aF0.8035
aF0.8001
aF0.7979
aF0.8016
aF0.8161
aF0.8039
aF0.818
aF0.8176
aF0.8278
aF0.8323
aF0.8202
aF0.8348
aF0.8361
aF0.8269
aF0.8364
aF0.8328
aF0.8437
aF0.8277
aF0.8355
aF0.8366
aF0.8437
aF0.8376
aF0.8465
aF0.8523
aF0.8509
aF0.8482
aF0.8454
aF0.8547
aF0.8476
aF0.8458
aF0.8558
aF0.8519
aF0.8481
aF0.8503
aF0.8521
aF0.8566
aF0.8579
aF0.8501
aF0.8547
aF0.8514
aF0.8501
aF0.8495
aF0.8563
aF0.8491
aF0.8627
aF0.8593
aF0.8588
aF0.8495
aF0.8645
aF0.8577
aF0.8603
aF0.8553
aF0.8601
aF0.8619
aF0.8613
aF0.8673
aF0.8655
aF0.8627
aF0.8627
aF0.8656
aF0.8636
aF0.8695
aF0.8673
aF0.871
aF0.8608
aF0.8642
aF0.8649
aF0.8565
aF0.8708
aF0.8592
aF0.8644
aF0.8679
aF0.8634
aF0.8671
aF0.8674
aF0.8744
aF0.8672
aF0.8653
aF0.8719
aF0.8613
aF0.8655
aF0.8656
aF0.8604
aF0.8693
aF0.8668
aF0.8712
aF0.8602
aF0.8679
aF0.8663
aF0.8726
aF0.8646
aF0.8691
aF0.8665
aF0.8703
aF0.868
aF0.8698
aF0.8763
aF0.8636
aF0.8658
aF0.8595
aF0.8781
aF0.8641
aF0.8679
aF0.8715
aF0.8684
aF0.8697
aF0.8717
aF0.8732
aF0.8659
aF0.8742
aF0.8683
aF0.875
aF0.8771
aF0.8693
aF0.8716
aF0.8714
aF0.8691
aF0.8714
aF0.8698
aF0.869
aF0.8712
aF0.874
aF0.8721
aF0.871
aF0.8696
aF0.8726
aF0.8701
aF0.8699
aF0.8671
aF0.8827
aF0.8744
aF0.8777
aF0.8723
aF0.8737
aF0.8714
aF0.874
aF0.8779
aF0.8739
aF0.8677
aF0.8738
aF0.8704
aF0.878
aF0.8742
aF0.872
aF0.8757
aF0.8751
aF0.8749
aF0.8727
aF0.8726
aF0.8785
aF0.8702
aF0.8746
aF0.8773
aF0.8707
aF0.8694
aF0.8668
aF0.8744
aF0.8743
aF0.8723
aF0.8748
aF0.8736
aF0.8828
aF0.8784
aF0.8695
aF0.8792
aF0.869
aF0.8775
aF0.8732
aF0.8725
aF0.8699
aF0.8749
aF0.8751
aF0.8702
aF0.8799
aF0.8723
aF0.8748
aF0.8737
aF0.8721
aF0.8709
aF0.8715
aF0.8753
aF0.8756
aF0.8807
aF0.8751
aF0.8782
aF0.8759
aF0.8658
aF0.8718
aF0.873
aF0.8751
aF0.8769
aF0.8771
aF0.8759
aF0.8756
aF0.8708
aF0.8683
aF0.8784
aF0.8727
aF0.8749
aF0.8746
aF0.8784
aF0.8773
aF0.8778
aF0.873
aF0.8752
aF0.8739
aF0.8748
aF0.8779
aF0.8722
aF0.8796
aF0.8835
aF0.8785
aF0.8789
aF0.8747
aF0.8766
aF0.8808
aF0.8714
aF0.8689
aF0.8828
aF0.8806
aF0.8804
aF0.8778
aF0.8771
aF0.8717
aF0.8729
aF0.8738
aF0.8762
aF0.8823
aF0.877
aF0.8834
aF0.8797
aF0.8721
aF0.8751
aF0.8813
aF0.8758
aF0.8718
aF0.8813
aF0.8766
aF0.8747
aF0.8774
aF0.8759
aF0.8797
aF0.8771
aF0.8758
aF0.8721
aF0.8783
aF0.8777
aF0.8801
aF0.8729
aF0.8795
aF0.8782
aF0.8747
aF0.8794
aF0.8766
aF0.8726
aF0.8837
aF0.881
aF0.8783
aF0.8767
aF0.878
aF0.8731
aF0.8701
aF0.8752
aF0.8835
aF0.8827
aF0.8832
aF0.8767
aF0.874
aF0.8745
aF0.8749
aF0.8796
aF0.8799
aF0.8767
aF0.8717
aF0.8723
aF0.8776
aF0.8838
aF0.8794
aF0.8833
aF0.8795
aF0.8745
aF0.8761
aF0.8789
aF0.8788
aF0.8726
aF0.8771
aF0.8792
aF0.8741
aF0.8836
aF0.8781
aF0.8763
aF0.8775
aF0.878
aF0.8755
aF0.8837
aF0.877
aF0.8739
aF0.8754
aF0.8761
aF0.8775
aF0.8737
aF0.8789
aF0.8741
aF0.8771
aF0.8775
aF0.8784
aF0.8824
aF0.8739
aF0.8761
aF0.8729
aF0.8723
aF0.8811
aF0.881
aF0.8733
aF0.88
aF0.8798
aF0.8775
aF0.8775
aF0.8785
aF0.8849
aF0.8766
aF0.8813
aF0.8786
aF0.8765
aF0.8864
aF0.878
aF0.8755
aF0.8772
aF0.8745
aF0.8778
aF0.8819
aF0.8756
aF0.8781
aF0.8764
aF0.878
aF0.8763
aF0.8723
aF0.8839
aF0.8783
aF0.8817
aF0.8828
aF0.8765
aF0.8744
aF0.8804
aF0.8824
aF0.8717
aF0.8693
aF0.8808
aF0.8807
aF0.8764
aF0.8793
aF0.8772
aF0.8805
aF0.8756
aF0.8724
aF0.8763
aF0.8738
aF0.8804
aF0.8817
aF0.8784
aF0.8818
aF0.8762
aF0.876
aF0.8786
aF0.8826
aF0.8766
aF0.8843
aF0.8813
aF0.8785
aF0.8779
aF0.8779
aF0.8833
aF0.8787
aF0.8755
aF0.8856
aF0.8769
aF0.8753
aF0.8795
aF0.8786
aF0.8782
aF0.8808
aF0.876
aF0.8839
aF0.8757
aF0.8747
aF0.8798
aF0.8853
aF0.8777
aF0.8766
aF0.8687
aF0.8768
aa.